
free RTOS challenge user story 1.elf:     file format elf32-avr

Sections:
Idx Name          Size      VMA       LMA       File off  Algn
  0 .text         00001c64  00000000  00000000  00000094  2**1
                  CONTENTS, ALLOC, LOAD, READONLY, CODE
  1 .data         0000005e  00800060  00001c64  00001cf8  2**0
                  CONTENTS, ALLOC, LOAD, DATA
  2 .bss          0000066b  008000be  008000be  00001d56  2**0
                  ALLOC
  3 .comment      00000030  00000000  00000000  00001d56  2**0
                  CONTENTS, READONLY
  4 .note.gnu.avr.deviceinfo 0000003c  00000000  00000000  00001d88  2**2
                  CONTENTS, READONLY
  5 .debug_aranges 00000498  00000000  00000000  00001dc4  2**0
                  CONTENTS, READONLY, DEBUGGING
  6 .debug_info   000053e9  00000000  00000000  0000225c  2**0
                  CONTENTS, READONLY, DEBUGGING
  7 .debug_abbrev 00001574  00000000  00000000  00007645  2**0
                  CONTENTS, READONLY, DEBUGGING
  8 .debug_line   00003263  00000000  00000000  00008bb9  2**0
                  CONTENTS, READONLY, DEBUGGING
  9 .debug_frame  00000cdc  00000000  00000000  0000be1c  2**2
                  CONTENTS, READONLY, DEBUGGING
 10 .debug_str    00001a0d  00000000  00000000  0000caf8  2**0
                  CONTENTS, READONLY, DEBUGGING
 11 .debug_loc    000057da  00000000  00000000  0000e505  2**0
                  CONTENTS, READONLY, DEBUGGING
 12 .debug_ranges 000004a8  00000000  00000000  00013cdf  2**0
                  CONTENTS, READONLY, DEBUGGING

Disassembly of section .text:

00000000 <__vectors>:
       0:	0c 94 3a 00 	jmp	0x74	; 0x74 <__ctors_end>
       4:	0c 94 57 00 	jmp	0xae	; 0xae <__bad_interrupt>
       8:	0c 94 57 00 	jmp	0xae	; 0xae <__bad_interrupt>
       c:	0c 94 57 00 	jmp	0xae	; 0xae <__bad_interrupt>
      10:	0c 94 57 00 	jmp	0xae	; 0xae <__bad_interrupt>
      14:	0c 94 57 00 	jmp	0xae	; 0xae <__bad_interrupt>
      18:	0c 94 57 00 	jmp	0xae	; 0xae <__bad_interrupt>
      1c:	0c 94 b2 05 	jmp	0xb64	; 0xb64 <__vector_7>
      20:	0c 94 57 00 	jmp	0xae	; 0xae <__bad_interrupt>
      24:	0c 94 57 00 	jmp	0xae	; 0xae <__bad_interrupt>
      28:	0c 94 57 00 	jmp	0xae	; 0xae <__bad_interrupt>
      2c:	0c 94 57 00 	jmp	0xae	; 0xae <__bad_interrupt>
      30:	0c 94 57 00 	jmp	0xae	; 0xae <__bad_interrupt>
      34:	0c 94 57 00 	jmp	0xae	; 0xae <__bad_interrupt>
      38:	0c 94 57 00 	jmp	0xae	; 0xae <__bad_interrupt>
      3c:	0c 94 57 00 	jmp	0xae	; 0xae <__bad_interrupt>
      40:	0c 94 57 00 	jmp	0xae	; 0xae <__bad_interrupt>
      44:	0c 94 57 00 	jmp	0xae	; 0xae <__bad_interrupt>
      48:	0c 94 57 00 	jmp	0xae	; 0xae <__bad_interrupt>
      4c:	0c 94 57 00 	jmp	0xae	; 0xae <__bad_interrupt>
      50:	0c 94 57 00 	jmp	0xae	; 0xae <__bad_interrupt>
      54:	cc 02       	muls	r28, r28
      56:	d8 02       	muls	r29, r24
      58:	df 02       	muls	r29, r31
      5a:	e7 02       	muls	r30, r23
      5c:	ee 02       	muls	r30, r30
      5e:	f5 02       	muls	r31, r21
      60:	fc 02       	muls	r31, r28
      62:	03 03       	mulsu	r16, r19
      64:	68 03       	fmul	r22, r16
      66:	74 03       	mulsu	r23, r20
      68:	7b 03       	fmul	r23, r19
      6a:	83 03       	fmuls	r16, r19
      6c:	8a 03       	fmulsu	r16, r18
      6e:	91 03       	fmuls	r17, r17
      70:	98 03       	fmulsu	r17, r16
      72:	9f 03       	fmulsu	r17, r23

00000074 <__ctors_end>:
      74:	11 24       	eor	r1, r1
      76:	1f be       	out	0x3f, r1	; 63
      78:	cf e5       	ldi	r28, 0x5F	; 95
      7a:	d8 e0       	ldi	r29, 0x08	; 8
      7c:	de bf       	out	0x3e, r29	; 62
      7e:	cd bf       	out	0x3d, r28	; 61

00000080 <__do_copy_data>:
      80:	10 e0       	ldi	r17, 0x00	; 0
      82:	a0 e6       	ldi	r26, 0x60	; 96
      84:	b0 e0       	ldi	r27, 0x00	; 0
      86:	e4 e6       	ldi	r30, 0x64	; 100
      88:	fc e1       	ldi	r31, 0x1C	; 28
      8a:	02 c0       	rjmp	.+4      	; 0x90 <__do_copy_data+0x10>
      8c:	05 90       	lpm	r0, Z+
      8e:	0d 92       	st	X+, r0
      90:	ae 3b       	cpi	r26, 0xBE	; 190
      92:	b1 07       	cpc	r27, r17
      94:	d9 f7       	brne	.-10     	; 0x8c <__do_copy_data+0xc>

00000096 <__do_clear_bss>:
      96:	27 e0       	ldi	r18, 0x07	; 7
      98:	ae eb       	ldi	r26, 0xBE	; 190
      9a:	b0 e0       	ldi	r27, 0x00	; 0
      9c:	01 c0       	rjmp	.+2      	; 0xa0 <.do_clear_bss_start>

0000009e <.do_clear_bss_loop>:
      9e:	1d 92       	st	X+, r1

000000a0 <.do_clear_bss_start>:
      a0:	a9 32       	cpi	r26, 0x29	; 41
      a2:	b2 07       	cpc	r27, r18
      a4:	e1 f7       	brne	.-8      	; 0x9e <.do_clear_bss_loop>
      a6:	0e 94 0a 0d 	call	0x1a14	; 0x1a14 <main>
      aa:	0c 94 30 0e 	jmp	0x1c60	; 0x1c60 <_exit>

000000ae <__bad_interrupt>:
      ae:	0c 94 00 00 	jmp	0	; 0x0 <__vectors>

000000b2 <req2_Button0_Task>:
*   @params  name : void
*
*   @return void
****************************************************************************/
void req2_Button0_Task( void * pvParameters)
{
      b2:	cf 93       	push	r28
      b4:	df 93       	push	r29
      b6:	cd b7       	in	r28, 0x3d	; 61
      b8:	de b7       	in	r29, 0x3e	; 62
      ba:	27 97       	sbiw	r28, 0x07	; 7
      bc:	0f b6       	in	r0, 0x3f	; 63
      be:	f8 94       	cli
      c0:	de bf       	out	0x3e, r29	; 62
      c2:	0f be       	out	0x3f, r0	; 63
      c4:	cd bf       	out	0x3d, r28	; 61
	
	
	
	uint8 button_status=LOW;
	ST_ButtonInfoqueueItem_t aST_ButtonInfoqueueItem_button0info ={BTN0, "BUTTON 0:HERE",1,1};		
      c6:	25 e0       	ldi	r18, 0x05	; 5
      c8:	e0 e6       	ldi	r30, 0x60	; 96
      ca:	f0 e0       	ldi	r31, 0x00	; 0
      cc:	ce 01       	movw	r24, r28
      ce:	01 96       	adiw	r24, 0x01	; 1
      d0:	dc 01       	movw	r26, r24
      d2:	01 90       	ld	r0, Z+
      d4:	0d 92       	st	X+, r0
      d6:	2a 95       	dec	r18
      d8:	e1 f7       	brne	.-8      	; 0xd2 <req2_Button0_Task+0x20>
	ST_ButtonInfoqueueItem_t *ptr=&aST_ButtonInfoqueueItem_button0info;
      da:	9f 83       	std	Y+7, r25	; 0x07
      dc:	8e 83       	std	Y+6, r24	; 0x06
		
		 

		
		
			button_status = BTN_Read_Undebounce(BTN0);
      de:	80 e0       	ldi	r24, 0x00	; 0
      e0:	0e 94 b6 02 	call	0x56c	; 0x56c <BTN_Read_Undebounce>
			
					
				/* check if the change to high or to low */
				if (button_status == HIGH)
      e4:	81 30       	cpi	r24, 0x01	; 1
      e6:	61 f4       	brne	.+24     	; 0x100 <req2_Button0_Task+0x4e>
				{
					
					
					xQueueSend(
      e8:	20 e0       	ldi	r18, 0x00	; 0
      ea:	4f ef       	ldi	r20, 0xFF	; 255
      ec:	5f ef       	ldi	r21, 0xFF	; 255
      ee:	be 01       	movw	r22, r28
      f0:	6a 5f       	subi	r22, 0xFA	; 250
      f2:	7f 4f       	sbci	r23, 0xFF	; 255
      f4:	80 91 27 07 	lds	r24, 0x0727	; 0x800727 <gQueueHandle_ButtonInf>
      f8:	90 91 28 07 	lds	r25, 0x0728	; 0x800728 <gQueueHandle_ButtonInf+0x1>
      fc:	0e 94 16 07 	call	0xe2c	; 0xe2c <xQueueGenericSend>
				{
					
											
				}
		
		vTaskDelay(BUTTON0_TASK_PERIODICITY);
     100:	81 e2       	ldi	r24, 0x21	; 33
     102:	90 e0       	ldi	r25, 0x00	; 0
     104:	0e 94 5f 0b 	call	0x16be	; 0x16be <vTaskDelay>
		
	}
     108:	ea cf       	rjmp	.-44     	; 0xde <req2_Button0_Task+0x2c>

0000010a <req2_Button1_Task>:
*   @params  name : void
*
*   @return void
****************************************************************************/
void req2_Button1_Task( void * pvParameters)
{
     10a:	cf 93       	push	r28
     10c:	df 93       	push	r29
     10e:	cd b7       	in	r28, 0x3d	; 61
     110:	de b7       	in	r29, 0x3e	; 62
     112:	27 97       	sbiw	r28, 0x07	; 7
     114:	0f b6       	in	r0, 0x3f	; 63
     116:	f8 94       	cli
     118:	de bf       	out	0x3e, r29	; 62
     11a:	0f be       	out	0x3f, r0	; 63
     11c:	cd bf       	out	0x3d, r28	; 61
	uint8 button_status=LOW;
	ST_ButtonInfoqueueItem_t aST_ButtonInfoqueueItem_button1Info ={BTN1, "BUTTON 1:HERE",2,1};
     11e:	25 e0       	ldi	r18, 0x05	; 5
     120:	e5 e6       	ldi	r30, 0x65	; 101
     122:	f0 e0       	ldi	r31, 0x00	; 0
     124:	ce 01       	movw	r24, r28
     126:	01 96       	adiw	r24, 0x01	; 1
     128:	dc 01       	movw	r26, r24
     12a:	01 90       	ld	r0, Z+
     12c:	0d 92       	st	X+, r0
     12e:	2a 95       	dec	r18
     130:	e1 f7       	brne	.-8      	; 0x12a <req2_Button1_Task+0x20>
	ST_ButtonInfoqueueItem_t *ptr=&aST_ButtonInfoqueueItem_button1Info;
     132:	9f 83       	std	Y+7, r25	; 0x07
     134:	8e 83       	std	Y+6, r24	; 0x06
	while(1)
	{
		
		
		button_status = BTN_Read_Undebounce(BTN1);
     136:	81 e0       	ldi	r24, 0x01	; 1
     138:	0e 94 b6 02 	call	0x56c	; 0x56c <BTN_Read_Undebounce>
		
		/* check if the change to high or to low */
		if (button_status == HIGH)
     13c:	81 30       	cpi	r24, 0x01	; 1
     13e:	61 f4       	brne	.+24     	; 0x158 <req2_Button1_Task+0x4e>
		{
			
			
			xQueueSend(
     140:	20 e0       	ldi	r18, 0x00	; 0
     142:	4f ef       	ldi	r20, 0xFF	; 255
     144:	5f ef       	ldi	r21, 0xFF	; 255
     146:	be 01       	movw	r22, r28
     148:	6a 5f       	subi	r22, 0xFA	; 250
     14a:	7f 4f       	sbci	r23, 0xFF	; 255
     14c:	80 91 27 07 	lds	r24, 0x0727	; 0x800727 <gQueueHandle_ButtonInf>
     150:	90 91 28 07 	lds	r25, 0x0728	; 0x800728 <gQueueHandle_ButtonInf+0x1>
     154:	0e 94 16 07 	call	0xe2c	; 0xe2c <xQueueGenericSend>
			
			
		}	
		
		
		vTaskDelay(BUTTON1_TASK_PERIODICITY);
     158:	88 e2       	ldi	r24, 0x28	; 40
     15a:	90 e0       	ldi	r25, 0x00	; 0
     15c:	0e 94 5f 0b 	call	0x16be	; 0x16be <vTaskDelay>
		
	}
     160:	ea cf       	rjmp	.-44     	; 0x136 <req2_Button1_Task+0x2c>

00000162 <req2_Lcd_Task>:
*   @params  name : void
*
*   @return void
****************************************************************************/
void req2_Lcd_Task( void * pvParameters)
{
     162:	cf 93       	push	r28
     164:	df 93       	push	r29
     166:	00 d0       	rcall	.+0      	; 0x168 <req2_Lcd_Task+0x6>
     168:	cd b7       	in	r28, 0x3d	; 61
     16a:	de b7       	in	r29, 0x3e	; 62
	static volatile uint8	au8_Button1MessageDisplayingFlag=FALSE;
	
	uint8 au8_TickOverflowFlag;
	char *aStr_PrintedText=NULL;
	uint8 au8_row,au8_column;
	uint8 btn=NONE;
     16c:	0f 2e       	mov	r0, r31
     16e:	f5 e0       	ldi	r31, 0x05	; 5
     170:	ef 2e       	mov	r14, r31
     172:	f0 2d       	mov	r31, r0
	
	static volatile uint32	au32_Button1MessageDisplayingCounter=NUMBER_ZERO;
	static volatile uint8	au8_Button1MessageDisplayingFlag=FALSE;
	
	uint8 au8_TickOverflowFlag;
	char *aStr_PrintedText=NULL;
     174:	c1 2c       	mov	r12, r1
     176:	d1 2c       	mov	r13, r1
void req2_Lcd_Task( void * pvParameters)
{
	
	
	
	uint8 au8_State=LCD_DISPLAY_STATE_WAIT_BUTTONS_QUEUE;
     178:	10 e0       	ldi	r17, 0x00	; 0
	 BaseType_t aBaseType_ReceivingFromQueueStatus;
	while(TRUE)
	{
		
		au8_TickOverflowFlag =gu8_TicksOverflowFlag;
		gu8_TicksOverflowFlag =FALSE;
     17a:	f1 2c       	mov	r15, r1
					vTaskDelay(NUMBER_ONE);
				
				}
				else
				{
					au8_State =LCD_DISPLAY_STATE_DISPLAY_STRING;
     17c:	0f 2e       	mov	r0, r31
     17e:	f3 e0       	ldi	r31, 0x03	; 3
     180:	6f 2e       	mov	r6, r31
     182:	f0 2d       	mov	r31, r0
								switch(btn)
								{
									case BTN0 :
									Leds_Toggle(LED1);
										au32_Button0MessageDisplayingCounter = (uint32)((uint32)gu16_Ticks+(uint32)500);
										au8_Button0MessageDisplayingFlag =1;
     184:	44 24       	eor	r4, r4
     186:	43 94       	inc	r4
				 {
					  /*  clear LCD for button 1 */
					 aStr_PrintedText = "                 ";
					 au8_row			=LCD_START_ROW_BUTTON1_STATUS;
					 au8_column		=LCD_START_COLUMN_BUTTON1_STATUS;
					 btn=NONE;
     188:	0f 2e       	mov	r0, r31
     18a:	f5 e0       	ldi	r31, 0x05	; 5
     18c:	3f 2e       	mov	r3, r31
     18e:	f0 2d       	mov	r31, r0
				 }
				 else if ((au8_Button1MessageDisplayingFlag == 1) && (au32_Button1MessageDisplayingCounter <= gu16_Ticks) )
				 {
					  /*  clear LCD for button 1 */
					 aStr_PrintedText = "                 ";
					 au8_row			=LCD_START_ROW_BUTTON1_STATUS;
     190:	68 94       	set
     192:	55 24       	eor	r5, r5
     194:	51 f8       	bld	r5, 1
					  
				 }
				 else if ((au8_Button1MessageDisplayingFlag == 1) && (au32_Button1MessageDisplayingCounter <= gu16_Ticks) )
				 {
					  /*  clear LCD for button 1 */
					 aStr_PrintedText = "                 ";
     196:	0f 2e       	mov	r0, r31
     198:	f6 e8       	ldi	r31, 0x86	; 134
     19a:	af 2e       	mov	r10, r31
     19c:	f0 e0       	ldi	r31, 0x00	; 0
     19e:	bf 2e       	mov	r11, r31
     1a0:	f0 2d       	mov	r31, r0
	 BaseType_t aBaseType_ReceivingFromQueueStatus;
	while(TRUE)
	{
		
		au8_TickOverflowFlag =gu8_TicksOverflowFlag;
		gu8_TicksOverflowFlag =FALSE;
     1a2:	7f 2c       	mov	r7, r15
     1a4:	01 c0       	rjmp	.+2      	; 0x1a8 <req2_Lcd_Task+0x46>
					vTaskDelay(NUMBER_ONE);
				
				}
				else
				{
					au8_State =LCD_DISPLAY_STATE_DISPLAY_STRING;
     1a6:	16 2d       	mov	r17, r6
     1a8:	00 91 c8 00 	lds	r16, 0x00C8	; 0x8000c8 <gu8_TicksOverflowFlag>
     1ac:	01 c0       	rjmp	.+2      	; 0x1b0 <req2_Lcd_Task+0x4e>
	 BaseType_t aBaseType_ReceivingFromQueueStatus;
	while(TRUE)
	{
		
		au8_TickOverflowFlag =gu8_TicksOverflowFlag;
		gu8_TicksOverflowFlag =FALSE;
     1ae:	07 2d       	mov	r16, r7
		
		switch(au8_State)
     1b0:	12 30       	cpi	r17, 0x02	; 2
     1b2:	09 f4       	brne	.+2      	; 0x1b6 <req2_Lcd_Task+0x54>
     1b4:	90 c0       	rjmp	.+288    	; 0x2d6 <req2_Lcd_Task+0x174>
     1b6:	13 30       	cpi	r17, 0x03	; 3
     1b8:	09 f4       	brne	.+2      	; 0x1bc <req2_Lcd_Task+0x5a>
     1ba:	9a c0       	rjmp	.+308    	; 0x2f0 <req2_Lcd_Task+0x18e>
     1bc:	11 11       	cpse	r17, r1
     1be:	f7 cf       	rjmp	.-18     	; 0x1ae <req2_Lcd_Task+0x4c>
     1c0:	f0 92 c8 00 	sts	0x00C8, r15	; 0x8000c8 <gu8_TicksOverflowFlag>
		{
			/*	wait here until a flag from a button that there is a change	*/
			case LCD_DISPLAY_STATE_WAIT_BUTTONS_QUEUE:
				aBaseType_ReceivingFromQueueStatus=	xQueueReceive( gQueueHandle_ButtonInf,
     1c4:	40 e0       	ldi	r20, 0x00	; 0
     1c6:	50 e0       	ldi	r21, 0x00	; 0
     1c8:	be 01       	movw	r22, r28
     1ca:	6f 5f       	subi	r22, 0xFF	; 255
     1cc:	7f 4f       	sbci	r23, 0xFF	; 255
     1ce:	80 91 27 07 	lds	r24, 0x0727	; 0x800727 <gQueueHandle_ButtonInf>
     1d2:	90 91 28 07 	lds	r25, 0x0728	; 0x800728 <gQueueHandle_ButtonInf+0x1>
     1d6:	0e 94 af 07 	call	0xf5e	; 0xf5e <xQueueReceive>
												(void *)&apButtonInfoqueueItem_ButtonInfo,
												NUMBER_ZERO
												);
				
				if ( (au8_TickOverflowFlag == TRUE) && (au8_Button0MessageDisplayingFlag == TRUE) )
     1da:	01 30       	cpi	r16, 0x01	; 1
     1dc:	51 f5       	brne	.+84     	; 0x232 <req2_Lcd_Task+0xd0>
     1de:	90 91 c7 00 	lds	r25, 0x00C7	; 0x8000c7 <au8_Button0MessageDisplayingFlag.2393>
     1e2:	91 30       	cpi	r25, 0x01	; 1
     1e4:	09 f0       	breq	.+2      	; 0x1e8 <req2_Lcd_Task+0x86>
     1e6:	d2 c0       	rjmp	.+420    	; 0x38c <req2_Lcd_Task+0x22a>
				{
					au32_Button0MessageDisplayingCounter =(uint16) au32_Button0MessageDisplayingCounter;
     1e8:	40 91 c3 00 	lds	r20, 0x00C3	; 0x8000c3 <au32_Button0MessageDisplayingCounter.2392>
     1ec:	50 91 c4 00 	lds	r21, 0x00C4	; 0x8000c4 <au32_Button0MessageDisplayingCounter.2392+0x1>
     1f0:	60 91 c5 00 	lds	r22, 0x00C5	; 0x8000c5 <au32_Button0MessageDisplayingCounter.2392+0x2>
     1f4:	70 91 c6 00 	lds	r23, 0x00C6	; 0x8000c6 <au32_Button0MessageDisplayingCounter.2392+0x3>
     1f8:	66 27       	eor	r22, r22
     1fa:	77 27       	eor	r23, r23
     1fc:	40 93 c3 00 	sts	0x00C3, r20	; 0x8000c3 <au32_Button0MessageDisplayingCounter.2392>
     200:	50 93 c4 00 	sts	0x00C4, r21	; 0x8000c4 <au32_Button0MessageDisplayingCounter.2392+0x1>
     204:	60 93 c5 00 	sts	0x00C5, r22	; 0x8000c5 <au32_Button0MessageDisplayingCounter.2392+0x2>
     208:	70 93 c6 00 	sts	0x00C6, r23	; 0x8000c6 <au32_Button0MessageDisplayingCounter.2392+0x3>
     20c:	bf c0       	rjmp	.+382    	; 0x38c <req2_Lcd_Task+0x22a>
				}
				
				if ( (au8_TickOverflowFlag == 1) && (au8_Button1MessageDisplayingFlag==1) )
				{
					au32_Button1MessageDisplayingCounter =(uint16) au32_Button1MessageDisplayingCounter;
     20e:	40 91 be 00 	lds	r20, 0x00BE	; 0x8000be <__data_end>
     212:	50 91 bf 00 	lds	r21, 0x00BF	; 0x8000bf <__data_end+0x1>
     216:	60 91 c0 00 	lds	r22, 0x00C0	; 0x8000c0 <__data_end+0x2>
     21a:	70 91 c1 00 	lds	r23, 0x00C1	; 0x8000c1 <__data_end+0x3>
     21e:	66 27       	eor	r22, r22
     220:	77 27       	eor	r23, r23
     222:	40 93 be 00 	sts	0x00BE, r20	; 0x8000be <__data_end>
     226:	50 93 bf 00 	sts	0x00BF, r21	; 0x8000bf <__data_end+0x1>
     22a:	60 93 c0 00 	sts	0x00C0, r22	; 0x8000c0 <__data_end+0x2>
     22e:	70 93 c1 00 	sts	0x00C1, r23	; 0x8000c1 <__data_end+0x3>
			    }
				
				
				 if (aBaseType_ReceivingFromQueueStatus == pdTRUE)
     232:	81 30       	cpi	r24, 0x01	; 1
     234:	49 f4       	brne	.+18     	; 0x248 <req2_Lcd_Task+0xe6>
				 {
					
						
						 aStr_PrintedText = apButtonInfoqueueItem_ButtonInfo->btnStr;
     236:	e9 81       	ldd	r30, Y+1	; 0x01
     238:	fa 81       	ldd	r31, Y+2	; 0x02
     23a:	c1 80       	ldd	r12, Z+1	; 0x01
     23c:	d2 80       	ldd	r13, Z+2	; 0x02
						 au8_row		  =apButtonInfoqueueItem_ButtonInfo->row;
     23e:	83 80       	ldd	r8, Z+3	; 0x03
						 au8_column       =apButtonInfoqueueItem_ButtonInfo->column;
     240:	94 80       	ldd	r9, Z+4	; 0x04
						 btn			 =apButtonInfoqueueItem_ButtonInfo->btnNum;
     242:	e0 80       	ld	r14, Z
						 au8_State =	  LCD_DISPLAY_STATE_GOTO_ROW_LOCATION;
     244:	15 2d       	mov	r17, r5
     246:	b0 cf       	rjmp	.-160    	; 0x1a8 <req2_Lcd_Task+0x46>
						 
						 
					 
				 }
				 else if ( au8_Button0MessageDisplayingFlag ==1 && (au32_Button0MessageDisplayingCounter <= gu16_Ticks) )
     248:	80 91 c7 00 	lds	r24, 0x00C7	; 0x8000c7 <au8_Button0MessageDisplayingFlag.2393>
     24c:	81 30       	cpi	r24, 0x01	; 1
     24e:	f1 f4       	brne	.+60     	; 0x28c <req2_Lcd_Task+0x12a>
     250:	40 91 c3 00 	lds	r20, 0x00C3	; 0x8000c3 <au32_Button0MessageDisplayingCounter.2392>
     254:	50 91 c4 00 	lds	r21, 0x00C4	; 0x8000c4 <au32_Button0MessageDisplayingCounter.2392+0x1>
     258:	60 91 c5 00 	lds	r22, 0x00C5	; 0x8000c5 <au32_Button0MessageDisplayingCounter.2392+0x2>
     25c:	70 91 c6 00 	lds	r23, 0x00C6	; 0x8000c6 <au32_Button0MessageDisplayingCounter.2392+0x3>
     260:	80 91 c9 00 	lds	r24, 0x00C9	; 0x8000c9 <gu16_Ticks>
     264:	90 91 ca 00 	lds	r25, 0x00CA	; 0x8000ca <gu16_Ticks+0x1>
     268:	a0 e0       	ldi	r26, 0x00	; 0
     26a:	b0 e0       	ldi	r27, 0x00	; 0
     26c:	84 17       	cp	r24, r20
     26e:	95 07       	cpc	r25, r21
     270:	a6 07       	cpc	r26, r22
     272:	b7 07       	cpc	r27, r23
     274:	58 f0       	brcs	.+22     	; 0x28c <req2_Lcd_Task+0x12a>
					 /*  clear LCD for button 0 */
					  aStr_PrintedText = "                ";
					  au8_row			=LCD_START_ROW_BUTTON0_STATUS;
					  au8_column		=LCD_START_COLUMN_BUTTON0_STATUS;
					  btn =NONE;
					  au8_Button0MessageDisplayingFlag =FALSE;
     276:	f0 92 c7 00 	sts	0x00C7, r15	; 0x8000c7 <au8_Button0MessageDisplayingFlag.2393>
					 
					 /*  clear LCD for button 0 */
					  aStr_PrintedText = "                ";
					  au8_row			=LCD_START_ROW_BUTTON0_STATUS;
					  au8_column		=LCD_START_COLUMN_BUTTON0_STATUS;
					  btn =NONE;
     27a:	e3 2c       	mov	r14, r3
				 {
					 
					 /*  clear LCD for button 0 */
					  aStr_PrintedText = "                ";
					  au8_row			=LCD_START_ROW_BUTTON0_STATUS;
					  au8_column		=LCD_START_COLUMN_BUTTON0_STATUS;
     27c:	94 2c       	mov	r9, r4
				 else if ( au8_Button0MessageDisplayingFlag ==1 && (au32_Button0MessageDisplayingCounter <= gu16_Ticks) )
				 {
					 
					 /*  clear LCD for button 0 */
					  aStr_PrintedText = "                ";
					  au8_row			=LCD_START_ROW_BUTTON0_STATUS;
     27e:	84 2c       	mov	r8, r4
				 }
				 else if ( au8_Button0MessageDisplayingFlag ==1 && (au32_Button0MessageDisplayingCounter <= gu16_Ticks) )
				 {
					 
					 /*  clear LCD for button 0 */
					  aStr_PrintedText = "                ";
     280:	87 e8       	ldi	r24, 0x87	; 135
     282:	90 e0       	ldi	r25, 0x00	; 0
     284:	c8 2e       	mov	r12, r24
     286:	d9 2e       	mov	r13, r25
					  au8_row			=LCD_START_ROW_BUTTON0_STATUS;
					  au8_column		=LCD_START_COLUMN_BUTTON0_STATUS;
					  btn =NONE;
					  au8_Button0MessageDisplayingFlag =FALSE;
					  au8_State =	  LCD_DISPLAY_STATE_GOTO_ROW_LOCATION;
     288:	15 2d       	mov	r17, r5
     28a:	8e cf       	rjmp	.-228    	; 0x1a8 <req2_Lcd_Task+0x46>
					  
					  
				 }
				 else if ((au8_Button1MessageDisplayingFlag == 1) && (au32_Button1MessageDisplayingCounter <= gu16_Ticks) )
     28c:	80 91 c2 00 	lds	r24, 0x00C2	; 0x8000c2 <au8_Button1MessageDisplayingFlag.2395>
     290:	81 30       	cpi	r24, 0x01	; 1
     292:	e1 f4       	brne	.+56     	; 0x2cc <req2_Lcd_Task+0x16a>
     294:	40 91 be 00 	lds	r20, 0x00BE	; 0x8000be <__data_end>
     298:	50 91 bf 00 	lds	r21, 0x00BF	; 0x8000bf <__data_end+0x1>
     29c:	60 91 c0 00 	lds	r22, 0x00C0	; 0x8000c0 <__data_end+0x2>
     2a0:	70 91 c1 00 	lds	r23, 0x00C1	; 0x8000c1 <__data_end+0x3>
     2a4:	80 91 c9 00 	lds	r24, 0x00C9	; 0x8000c9 <gu16_Ticks>
     2a8:	90 91 ca 00 	lds	r25, 0x00CA	; 0x8000ca <gu16_Ticks+0x1>
     2ac:	a0 e0       	ldi	r26, 0x00	; 0
     2ae:	b0 e0       	ldi	r27, 0x00	; 0
     2b0:	84 17       	cp	r24, r20
     2b2:	95 07       	cpc	r25, r21
     2b4:	a6 07       	cpc	r26, r22
     2b6:	b7 07       	cpc	r27, r23
     2b8:	48 f0       	brcs	.+18     	; 0x2cc <req2_Lcd_Task+0x16a>
					  /*  clear LCD for button 1 */
					 aStr_PrintedText = "                 ";
					 au8_row			=LCD_START_ROW_BUTTON1_STATUS;
					 au8_column		=LCD_START_COLUMN_BUTTON1_STATUS;
					 btn=NONE;
					 au8_Button1MessageDisplayingFlag =FALSE;
     2ba:	f0 92 c2 00 	sts	0x00C2, r15	; 0x8000c2 <au8_Button1MessageDisplayingFlag.2395>
				 {
					  /*  clear LCD for button 1 */
					 aStr_PrintedText = "                 ";
					 au8_row			=LCD_START_ROW_BUTTON1_STATUS;
					 au8_column		=LCD_START_COLUMN_BUTTON1_STATUS;
					 btn=NONE;
     2be:	e3 2c       	mov	r14, r3
				 else if ((au8_Button1MessageDisplayingFlag == 1) && (au32_Button1MessageDisplayingCounter <= gu16_Ticks) )
				 {
					  /*  clear LCD for button 1 */
					 aStr_PrintedText = "                 ";
					 au8_row			=LCD_START_ROW_BUTTON1_STATUS;
					 au8_column		=LCD_START_COLUMN_BUTTON1_STATUS;
     2c0:	94 2c       	mov	r9, r4
				 }
				 else if ((au8_Button1MessageDisplayingFlag == 1) && (au32_Button1MessageDisplayingCounter <= gu16_Ticks) )
				 {
					  /*  clear LCD for button 1 */
					 aStr_PrintedText = "                 ";
					 au8_row			=LCD_START_ROW_BUTTON1_STATUS;
     2c2:	85 2c       	mov	r8, r5
					  
				 }
				 else if ((au8_Button1MessageDisplayingFlag == 1) && (au32_Button1MessageDisplayingCounter <= gu16_Ticks) )
				 {
					  /*  clear LCD for button 1 */
					 aStr_PrintedText = "                 ";
     2c4:	ca 2c       	mov	r12, r10
     2c6:	db 2c       	mov	r13, r11
					 au8_row			=LCD_START_ROW_BUTTON1_STATUS;
					 au8_column		=LCD_START_COLUMN_BUTTON1_STATUS;
					 btn=NONE;
					 au8_Button1MessageDisplayingFlag =FALSE;
					 au8_State =	  LCD_DISPLAY_STATE_GOTO_ROW_LOCATION;
     2c8:	15 2d       	mov	r17, r5
     2ca:	6e cf       	rjmp	.-292    	; 0x1a8 <req2_Lcd_Task+0x46>
					 
				 }
				 else
				 {
					 /* stay here nothing to do for LCD */
					 vTaskDelay(NUMBER_ONE);
     2cc:	81 e0       	ldi	r24, 0x01	; 1
     2ce:	90 e0       	ldi	r25, 0x00	; 0
     2d0:	0e 94 5f 0b 	call	0x16be	; 0x16be <vTaskDelay>
     2d4:	69 cf       	rjmp	.-302    	; 0x1a8 <req2_Lcd_Task+0x46>
     2d6:	f0 92 c8 00 	sts	0x00C8, r15	; 0x8000c8 <gu8_TicksOverflowFlag>
				 }			
					break;
			
			
			case LCD_DISPLAY_STATE_GOTO_ROW_LOCATION:
				if( ( LCD_GoToRowColumn(au8_row,au8_column) == SEND_CMD_NOT_FINISHED))
     2da:	69 2d       	mov	r22, r9
     2dc:	88 2d       	mov	r24, r8
     2de:	0e 94 c4 03 	call	0x788	; 0x788 <LCD_GoToRowColumn>
     2e2:	81 11       	cpse	r24, r1
     2e4:	60 cf       	rjmp	.-320    	; 0x1a6 <req2_Lcd_Task+0x44>
				{
					vTaskDelay(NUMBER_ONE);
     2e6:	81 e0       	ldi	r24, 0x01	; 1
     2e8:	90 e0       	ldi	r25, 0x00	; 0
     2ea:	0e 94 5f 0b 	call	0x16be	; 0x16be <vTaskDelay>
     2ee:	5c cf       	rjmp	.-328    	; 0x1a8 <req2_Lcd_Task+0x46>
     2f0:	f0 92 c8 00 	sts	0x00C8, r15	; 0x8000c8 <gu8_TicksOverflowFlag>
					au8_State =LCD_DISPLAY_STATE_DISPLAY_STRING;
				}
				break;
				/*		display on LCD		*/
			case LCD_DISPLAY_STATE_DISPLAY_STRING:
				if( ( LCD_DisplayString(aStr_PrintedText) == SEND_DATA_NOT_FINISHED))
     2f4:	8c 2d       	mov	r24, r12
     2f6:	9d 2d       	mov	r25, r13
     2f8:	0e 94 ab 03 	call	0x756	; 0x756 <LCD_DisplayString>
     2fc:	81 11       	cpse	r24, r1
     2fe:	05 c0       	rjmp	.+10     	; 0x30a <req2_Lcd_Task+0x1a8>
				{
					vTaskDelay(NUMBER_ONE);
     300:	81 e0       	ldi	r24, 0x01	; 1
     302:	90 e0       	ldi	r25, 0x00	; 0
     304:	0e 94 5f 0b 	call	0x16be	; 0x16be <vTaskDelay>
     308:	4f cf       	rjmp	.-354    	; 0x1a8 <req2_Lcd_Task+0x46>
							semaphore. */
					 
							//au8_State =LCD_DISPLAY_STATE_GOTO_ROW_LOCATION_BUTTON_STATUS;
							
							/*  if a Button on displayed reset it's counter  */
							if (btn !=NONE)
     30a:	95 e0       	ldi	r25, 0x05	; 5
     30c:	e9 16       	cp	r14, r25
     30e:	c1 f1       	breq	.+112    	; 0x380 <req2_Lcd_Task+0x21e>
							{
								Leds_Toggle(LED0);
     310:	80 e1       	ldi	r24, 0x10	; 16
     312:	0e 94 ec 03 	call	0x7d8	; 0x7d8 <Leds_Toggle>
								
								switch(btn)
     316:	ee 20       	and	r14, r14
     318:	21 f0       	breq	.+8      	; 0x322 <req2_Lcd_Task+0x1c0>
     31a:	81 e0       	ldi	r24, 0x01	; 1
     31c:	e8 16       	cp	r14, r24
     31e:	c9 f0       	breq	.+50     	; 0x352 <req2_Lcd_Task+0x1f0>
     320:	2f c0       	rjmp	.+94     	; 0x380 <req2_Lcd_Task+0x21e>
								{
									case BTN0 :
									Leds_Toggle(LED1);
     322:	80 e2       	ldi	r24, 0x20	; 32
     324:	0e 94 ec 03 	call	0x7d8	; 0x7d8 <Leds_Toggle>
										au32_Button0MessageDisplayingCounter = (uint32)((uint32)gu16_Ticks+(uint32)500);
     328:	80 91 c9 00 	lds	r24, 0x00C9	; 0x8000c9 <gu16_Ticks>
     32c:	90 91 ca 00 	lds	r25, 0x00CA	; 0x8000ca <gu16_Ticks+0x1>
     330:	a0 e0       	ldi	r26, 0x00	; 0
     332:	b0 e0       	ldi	r27, 0x00	; 0
     334:	8c 50       	subi	r24, 0x0C	; 12
     336:	9e 4f       	sbci	r25, 0xFE	; 254
     338:	af 4f       	sbci	r26, 0xFF	; 255
     33a:	bf 4f       	sbci	r27, 0xFF	; 255
     33c:	80 93 c3 00 	sts	0x00C3, r24	; 0x8000c3 <au32_Button0MessageDisplayingCounter.2392>
     340:	90 93 c4 00 	sts	0x00C4, r25	; 0x8000c4 <au32_Button0MessageDisplayingCounter.2392+0x1>
     344:	a0 93 c5 00 	sts	0x00C5, r26	; 0x8000c5 <au32_Button0MessageDisplayingCounter.2392+0x2>
     348:	b0 93 c6 00 	sts	0x00C6, r27	; 0x8000c6 <au32_Button0MessageDisplayingCounter.2392+0x3>
										au8_Button0MessageDisplayingFlag =1;
     34c:	40 92 c7 00 	sts	0x00C7, r4	; 0x8000c7 <au8_Button0MessageDisplayingFlag.2393>
										 
									break;
     350:	17 c0       	rjmp	.+46     	; 0x380 <req2_Lcd_Task+0x21e>
									case BTN1 :
									Leds_On(LED2);
     352:	80 e4       	ldi	r24, 0x40	; 64
     354:	0e 94 f1 03 	call	0x7e2	; 0x7e2 <Leds_On>
										au32_Button1MessageDisplayingCounter =(uint32)((uint32)gu16_Ticks+(uint32)500);
     358:	80 91 c9 00 	lds	r24, 0x00C9	; 0x8000c9 <gu16_Ticks>
     35c:	90 91 ca 00 	lds	r25, 0x00CA	; 0x8000ca <gu16_Ticks+0x1>
     360:	a0 e0       	ldi	r26, 0x00	; 0
     362:	b0 e0       	ldi	r27, 0x00	; 0
     364:	8c 50       	subi	r24, 0x0C	; 12
     366:	9e 4f       	sbci	r25, 0xFE	; 254
     368:	af 4f       	sbci	r26, 0xFF	; 255
     36a:	bf 4f       	sbci	r27, 0xFF	; 255
     36c:	80 93 be 00 	sts	0x00BE, r24	; 0x8000be <__data_end>
     370:	90 93 bf 00 	sts	0x00BF, r25	; 0x8000bf <__data_end+0x1>
     374:	a0 93 c0 00 	sts	0x00C0, r26	; 0x8000c0 <__data_end+0x2>
     378:	b0 93 c1 00 	sts	0x00C1, r27	; 0x8000c1 <__data_end+0x3>
										au8_Button1MessageDisplayingFlag =1;
     37c:	40 92 c2 00 	sts	0x00C2, r4	; 0x8000c2 <au8_Button1MessageDisplayingFlag.2395>
									break;
									
								}
							}
							au8_State =LCD_DISPLAY_STATE_WAIT_BUTTONS_QUEUE;
							vTaskDelay(LCD_TASK_PERIODICITY);
     380:	83 e0       	ldi	r24, 0x03	; 3
     382:	90 e0       	ldi	r25, 0x00	; 0
     384:	0e 94 5f 0b 	call	0x16be	; 0x16be <vTaskDelay>
										au8_Button1MessageDisplayingFlag =1;
									break;
									
								}
							}
							au8_State =LCD_DISPLAY_STATE_WAIT_BUTTONS_QUEUE;
     388:	1f 2d       	mov	r17, r15
     38a:	0e cf       	rjmp	.-484    	; 0x1a8 <req2_Lcd_Task+0x46>
				if ( (au8_TickOverflowFlag == TRUE) && (au8_Button0MessageDisplayingFlag == TRUE) )
				{
					au32_Button0MessageDisplayingCounter =(uint16) au32_Button0MessageDisplayingCounter;
				}
				
				if ( (au8_TickOverflowFlag == 1) && (au8_Button1MessageDisplayingFlag==1) )
     38c:	90 91 c2 00 	lds	r25, 0x00C2	; 0x8000c2 <au8_Button1MessageDisplayingFlag.2395>
     390:	91 30       	cpi	r25, 0x01	; 1
     392:	09 f0       	breq	.+2      	; 0x396 <req2_Lcd_Task+0x234>
     394:	4e cf       	rjmp	.-356    	; 0x232 <req2_Lcd_Task+0xd0>
     396:	3b cf       	rjmp	.-394    	; 0x20e <req2_Lcd_Task+0xac>

00000398 <req2_Init_Task>:
void req2_Init_Task(void * pvParameters)
{
	
	/*clear led and lcd flags flags*/
	
	BTN_init();
     398:	0e 94 b3 02 	call	0x566	; 0x566 <BTN_init>
	
	while(TRUE)
	{
		
		/* execuit this until it finishs */
		if (LCD_init() == INIT_LCD_NOT_FINISHED)
     39c:	0e 94 0f 03 	call	0x61e	; 0x61e <LCD_init>
     3a0:	81 11       	cpse	r24, r1
     3a2:	05 c0       	rjmp	.+10     	; 0x3ae <req2_Init_Task+0x16>
		{
			vTaskDelay(NUMBER_ONE);
     3a4:	81 e0       	ldi	r24, 0x01	; 1
     3a6:	90 e0       	ldi	r25, 0x00	; 0
     3a8:	0e 94 5f 0b 	call	0x16be	; 0x16be <vTaskDelay>
     3ac:	f7 cf       	rjmp	.-18     	; 0x39c <req2_Init_Task+0x4>
		}
		else
		{
			  vTaskResume(req2_Button0_TaskHandler);
     3ae:	80 91 cd 00 	lds	r24, 0x00CD	; 0x8000cd <req2_Button0_TaskHandler>
     3b2:	90 91 ce 00 	lds	r25, 0x00CE	; 0x8000ce <req2_Button0_TaskHandler+0x1>
     3b6:	0e 94 c8 09 	call	0x1390	; 0x1390 <vTaskResume>
			  vTaskResume(req2_Button1_TaskHandler);
     3ba:	80 91 cb 00 	lds	r24, 0x00CB	; 0x8000cb <req2_Button1_TaskHandler>
     3be:	90 91 cc 00 	lds	r25, 0x00CC	; 0x8000cc <req2_Button1_TaskHandler+0x1>
     3c2:	0e 94 c8 09 	call	0x1390	; 0x1390 <vTaskResume>
			  vTaskSuspend(req2_Init_TaskHandler);
     3c6:	80 91 cf 00 	lds	r24, 0x00CF	; 0x8000cf <req2_Init_TaskHandler>
     3ca:	90 91 d0 00 	lds	r25, 0x00D0	; 0x8000d0 <req2_Init_TaskHandler+0x1>
     3ce:	0e 94 d9 0b 	call	0x17b2	; 0x17b2 <vTaskSuspend>
     3d2:	e4 cf       	rjmp	.-56     	; 0x39c <req2_Init_Task+0x4>

000003d4 <req2_tasksCreation>:
*   @params  name : errorBuffer
*	type :uint8 *
*   @return uint8
****************************************************************************/
uint8 req2_tasksCreation(uint8 *errorBuffer)
{
     3d4:	ef 92       	push	r14
     3d6:	ff 92       	push	r15
     3d8:	0f 93       	push	r16
     3da:	1f 93       	push	r17
     3dc:	cf 93       	push	r28
     3de:	df 93       	push	r29
	uint8 status=REQ2_TASKS_SUCCFULLY_CREATED;
	uint8 tasks_size=0;
	if (errorBuffer != NULL)
     3e0:	00 97       	sbiw	r24, 0x00	; 0
     3e2:	09 f4       	brne	.+2      	; 0x3e6 <req2_tasksCreation+0x12>
     3e4:	71 c0       	rjmp	.+226    	; 0x4c8 <__LOCK_REGION_LENGTH__+0xc8>
     3e6:	ec 01       	movw	r28, r24
	{
	
	errorBuffer[tasks_size++] =	xTaskCreate(    req2_Init_Task,
     3e8:	0f 2e       	mov	r0, r31
     3ea:	ff ec       	ldi	r31, 0xCF	; 207
     3ec:	ef 2e       	mov	r14, r31
     3ee:	f0 e0       	ldi	r31, 0x00	; 0
     3f0:	ff 2e       	mov	r15, r31
     3f2:	f0 2d       	mov	r31, r0
     3f4:	04 e0       	ldi	r16, 0x04	; 4
     3f6:	20 e0       	ldi	r18, 0x00	; 0
     3f8:	30 e0       	ldi	r19, 0x00	; 0
     3fa:	44 e6       	ldi	r20, 0x64	; 100
     3fc:	50 e0       	ldi	r21, 0x00	; 0
     3fe:	68 e9       	ldi	r22, 0x98	; 152
     400:	70 e0       	ldi	r23, 0x00	; 0
     402:	8c ec       	ldi	r24, 0xCC	; 204
     404:	91 e0       	ldi	r25, 0x01	; 1
     406:	0e 94 bf 08 	call	0x117e	; 0x117e <xTaskCreate>
     40a:	88 83       	st	Y, r24
						 );
	 
	 
	
					 
	 errorBuffer[tasks_size++]	=xTaskCreate(    req2_Button0_Task,
     40c:	0f 2e       	mov	r0, r31
     40e:	fd ec       	ldi	r31, 0xCD	; 205
     410:	ef 2e       	mov	r14, r31
     412:	f0 e0       	ldi	r31, 0x00	; 0
     414:	ff 2e       	mov	r15, r31
     416:	f0 2d       	mov	r31, r0
     418:	01 e0       	ldi	r16, 0x01	; 1
     41a:	20 e0       	ldi	r18, 0x00	; 0
     41c:	30 e0       	ldi	r19, 0x00	; 0
     41e:	44 e6       	ldi	r20, 0x64	; 100
     420:	50 e0       	ldi	r21, 0x00	; 0
     422:	62 ea       	ldi	r22, 0xA2	; 162
     424:	70 e0       	ldi	r23, 0x00	; 0
     426:	89 e5       	ldi	r24, 0x59	; 89
     428:	90 e0       	ldi	r25, 0x00	; 0
     42a:	0e 94 bf 08 	call	0x117e	; 0x117e <xTaskCreate>
     42e:	89 83       	std	Y+1, r24	; 0x01
					 REQ2_BUTTON0_TASK_STACK_DEPTH,
					 REQ2_INPUT_PARAM_REF,
					 REQ2_BUTTON0_TASK_PRIORTY,
					 &req2_Button0_TaskHandler
					 );
	errorBuffer[tasks_size++]	=xTaskCreate(    req2_Button1_Task,
     430:	0f 2e       	mov	r0, r31
     432:	fb ec       	ldi	r31, 0xCB	; 203
     434:	ef 2e       	mov	r14, r31
     436:	f0 e0       	ldi	r31, 0x00	; 0
     438:	ff 2e       	mov	r15, r31
     43a:	f0 2d       	mov	r31, r0
     43c:	02 e0       	ldi	r16, 0x02	; 2
     43e:	20 e0       	ldi	r18, 0x00	; 0
     440:	30 e0       	ldi	r19, 0x00	; 0
     442:	44 e6       	ldi	r20, 0x64	; 100
     444:	50 e0       	ldi	r21, 0x00	; 0
     446:	6b ea       	ldi	r22, 0xAB	; 171
     448:	70 e0       	ldi	r23, 0x00	; 0
     44a:	85 e8       	ldi	r24, 0x85	; 133
     44c:	90 e0       	ldi	r25, 0x00	; 0
     44e:	0e 94 bf 08 	call	0x117e	; 0x117e <xTaskCreate>
     452:	8a 83       	std	Y+2, r24	; 0x02
					 REQ2_BUTTON1_TASK_STACK_DEPTH,
					 REQ2_INPUT_PARAM_REF,
					 REQ2_BUTTON1_TASK_PRIORTY,
					 &req2_Button1_TaskHandler
					 );
   errorBuffer[tasks_size++]	=xTaskCreate(    req2_Lcd_Task,
     454:	0f 2e       	mov	r0, r31
     456:	f1 ed       	ldi	r31, 0xD1	; 209
     458:	ef 2e       	mov	r14, r31
     45a:	f0 e0       	ldi	r31, 0x00	; 0
     45c:	ff 2e       	mov	r15, r31
     45e:	f0 2d       	mov	r31, r0
     460:	03 e0       	ldi	r16, 0x03	; 3
     462:	20 e0       	ldi	r18, 0x00	; 0
     464:	30 e0       	ldi	r19, 0x00	; 0
     466:	44 e6       	ldi	r20, 0x64	; 100
     468:	50 e0       	ldi	r21, 0x00	; 0
     46a:	64 eb       	ldi	r22, 0xB4	; 180
     46c:	70 e0       	ldi	r23, 0x00	; 0
     46e:	81 eb       	ldi	r24, 0xB1	; 177
     470:	90 e0       	ldi	r25, 0x00	; 0
     472:	0e 94 bf 08 	call	0x117e	; 0x117e <xTaskCreate>
     476:	8b 83       	std	Y+3, r24	; 0x03
     478:	fe 01       	movw	r30, r28
     47a:	24 96       	adiw	r28, 0x04	; 4
*	type :uint8 *
*   @return uint8
****************************************************************************/
uint8 req2_tasksCreation(uint8 *errorBuffer)
{
	uint8 status=REQ2_TASKS_SUCCFULLY_CREATED;
     47c:	11 e0       	ldi	r17, 0x01	; 1
					errorBuffer[index]= REQ2_TASK_NOTSUCCFULLY_CREATED;
					status = REQ2_TASKS_NOTSUCCFULLY_CREATED;
				}
				else
				{
					errorBuffer[index]= REQ2_TASK_SUCCFULLY_CREATED;
     47e:	21 e0       	ldi	r18, 0x01	; 1
			for (uint8 index=NUMBER_ZERO;index < tasks_size ;index++ )
			{
				if (errorBuffer[index] !=pdPASS)
				{
					errorBuffer[index]= REQ2_TASK_NOTSUCCFULLY_CREATED;
					status = REQ2_TASKS_NOTSUCCFULLY_CREATED;
     480:	90 e0       	ldi	r25, 0x00	; 0
					 REQ2_LCD_TASK_PRIORTY,
					 &req2_Lcd_TaskHandler
					 );
			for (uint8 index=NUMBER_ZERO;index < tasks_size ;index++ )
			{
				if (errorBuffer[index] !=pdPASS)
     482:	80 81       	ld	r24, Z
     484:	81 30       	cpi	r24, 0x01	; 1
     486:	19 f0       	breq	.+6      	; 0x48e <__LOCK_REGION_LENGTH__+0x8e>
				{
					errorBuffer[index]= REQ2_TASK_NOTSUCCFULLY_CREATED;
     488:	10 82       	st	Z, r1
					status = REQ2_TASKS_NOTSUCCFULLY_CREATED;
     48a:	19 2f       	mov	r17, r25
     48c:	01 c0       	rjmp	.+2      	; 0x490 <__LOCK_REGION_LENGTH__+0x90>
				}
				else
				{
					errorBuffer[index]= REQ2_TASK_SUCCFULLY_CREATED;
     48e:	20 83       	st	Z, r18
     490:	31 96       	adiw	r30, 0x01	; 1
					 REQ2_LCD_TASK_STACK_DEPTH,
					 REQ2_INPUT_PARAM_REF,
					 REQ2_LCD_TASK_PRIORTY,
					 &req2_Lcd_TaskHandler
					 );
			for (uint8 index=NUMBER_ZERO;index < tasks_size ;index++ )
     492:	ec 17       	cp	r30, r28
     494:	fd 07       	cpc	r31, r29
     496:	a9 f7       	brne	.-22     	; 0x482 <__LOCK_REGION_LENGTH__+0x82>
				}
			}
			
			
			
			 gQueueHandle_ButtonInf = xQueueCreate(BUTTON_INFO_QUEUE_SIZE ,sizeof(ST_ButtonInfoqueueItem_t *) );
     498:	40 e0       	ldi	r20, 0x00	; 0
     49a:	62 e0       	ldi	r22, 0x02	; 2
     49c:	85 e0       	ldi	r24, 0x05	; 5
     49e:	0e 94 e9 06 	call	0xdd2	; 0xdd2 <xQueueGenericCreate>
     4a2:	90 93 28 07 	sts	0x0728, r25	; 0x800728 <gQueueHandle_ButtonInf+0x1>
     4a6:	80 93 27 07 	sts	0x0727, r24	; 0x800727 <gQueueHandle_ButtonInf>
			 if (gQueueHandle_ButtonInf !=NULL)
     4aa:	89 2b       	or	r24, r25
     4ac:	79 f0       	breq	.+30     	; 0x4cc <__LOCK_REGION_LENGTH__+0xcc>
			 {
				 vTaskSuspend(req2_Button0_TaskHandler);
     4ae:	80 91 cd 00 	lds	r24, 0x00CD	; 0x8000cd <req2_Button0_TaskHandler>
     4b2:	90 91 ce 00 	lds	r25, 0x00CE	; 0x8000ce <req2_Button0_TaskHandler+0x1>
     4b6:	0e 94 d9 0b 	call	0x17b2	; 0x17b2 <vTaskSuspend>
				 vTaskSuspend(req2_Button1_TaskHandler);
     4ba:	80 91 cb 00 	lds	r24, 0x00CB	; 0x8000cb <req2_Button1_TaskHandler>
     4be:	90 91 cc 00 	lds	r25, 0x00CC	; 0x8000cc <req2_Button1_TaskHandler+0x1>
     4c2:	0e 94 d9 0b 	call	0x17b2	; 0x17b2 <vTaskSuspend>
     4c6:	03 c0       	rjmp	.+6      	; 0x4ce <__LOCK_REGION_LENGTH__+0xce>
			
					 
		}
		else
		{
			status =REQ2_TASKS_ERROR_REPORT_BUFFER_NULL;
     4c8:	1f ef       	ldi	r17, 0xFF	; 255
     4ca:	01 c0       	rjmp	.+2      	; 0x4ce <__LOCK_REGION_LENGTH__+0xce>
				 vTaskSuspend(req2_Button0_TaskHandler);
				 vTaskSuspend(req2_Button1_TaskHandler);
			 }
			 else
			 {
				status	= REQ2_TASKS_NOTSUCCFULLY_CREATED_BUTTON_INFO_QUEUE_NULL; 
     4cc:	1e ef       	ldi	r17, 0xFE	; 254
		else
		{
			status =REQ2_TASKS_ERROR_REPORT_BUFFER_NULL;
		}
	return status;
}
     4ce:	81 2f       	mov	r24, r17
     4d0:	df 91       	pop	r29
     4d2:	cf 91       	pop	r28
     4d4:	1f 91       	pop	r17
     4d6:	0f 91       	pop	r16
     4d8:	ff 90       	pop	r15
     4da:	ef 90       	pop	r14
     4dc:	08 95       	ret

000004de <vApplicationTickHook>:


void vApplicationTickHook( void )
{
	/* detect over flow */
	if ((uint16)gu16_Ticks > (uint16)(gu16_Ticks+1) )
     4de:	20 91 c9 00 	lds	r18, 0x00C9	; 0x8000c9 <gu16_Ticks>
     4e2:	30 91 ca 00 	lds	r19, 0x00CA	; 0x8000ca <gu16_Ticks+0x1>
     4e6:	c9 01       	movw	r24, r18
     4e8:	01 96       	adiw	r24, 0x01	; 1
     4ea:	82 17       	cp	r24, r18
     4ec:	93 07       	cpc	r25, r19
     4ee:	18 f4       	brcc	.+6      	; 0x4f6 <vApplicationTickHook+0x18>
	{
		gu8_TicksOverflowFlag=1;
     4f0:	21 e0       	ldi	r18, 0x01	; 1
     4f2:	20 93 c8 00 	sts	0x00C8, r18	; 0x8000c8 <gu8_TicksOverflowFlag>
	}
	++gu16_Ticks;
     4f6:	90 93 ca 00 	sts	0x00CA, r25	; 0x8000ca <gu16_Ticks+0x1>
     4fa:	80 93 c9 00 	sts	0x00C9, r24	; 0x8000c9 <gu16_Ticks>
     4fe:	08 95       	ret

00000500 <BTN_Read>:
static uint8 BTN_Read(uint8 btn)
{
	static uint8 BTN0Checking_counts=NUMBER_ZERO;
	static uint8 BTN1Checking_counts=NUMBER_ZERO;
	uint8 button_status=LOW;
	switch(btn)
     500:	88 23       	and	r24, r24
     502:	19 f0       	breq	.+6      	; 0x50a <BTN_Read+0xa>
     504:	81 30       	cpi	r24, 0x01	; 1
     506:	b9 f0       	breq	.+46     	; 0x536 <BTN_Read+0x36>
     508:	2c c0       	rjmp	.+88     	; 0x562 <BTN_Read+0x62>
	{
		case BTN0:
			if( (Gpio_PinRead(BUTTON0_PORT,BUTTON0_PIN) == HIGH)  )
     50a:	64 e0       	ldi	r22, 0x04	; 4
     50c:	82 e0       	ldi	r24, 0x02	; 2
     50e:	0e 94 97 0d 	call	0x1b2e	; 0x1b2e <Gpio_PinRead>
     512:	81 30       	cpi	r24, 0x01	; 1
     514:	61 f4       	brne	.+24     	; 0x52e <BTN_Read+0x2e>
			{
				if ((BTN0Checking_counts == NUMBER_ONE))
     516:	80 91 d4 00 	lds	r24, 0x00D4	; 0x8000d4 <BTN0Checking_counts.1803>
     51a:	81 30       	cpi	r24, 0x01	; 1
     51c:	19 f4       	brne	.+6      	; 0x524 <BTN_Read+0x24>
				{
					button_status =HIGH;
					BTN0Checking_counts=NUMBER_ZERO;
     51e:	10 92 d4 00 	sts	0x00D4, r1	; 0x8000d4 <BTN0Checking_counts.1803>
     522:	08 95       	ret
				}
				else
				{
					BTN0Checking_counts++;
     524:	8f 5f       	subi	r24, 0xFF	; 255
     526:	80 93 d4 00 	sts	0x00D4, r24	; 0x8000d4 <BTN0Checking_counts.1803>
}
static uint8 BTN_Read(uint8 btn)
{
	static uint8 BTN0Checking_counts=NUMBER_ZERO;
	static uint8 BTN1Checking_counts=NUMBER_ZERO;
	uint8 button_status=LOW;
     52a:	80 e0       	ldi	r24, 0x00	; 0
     52c:	08 95       	ret
				
			}
			else
			{
				button_status=NUMBER_ZERO;
				BTN0Checking_counts =NUMBER_ZERO;
     52e:	10 92 d4 00 	sts	0x00D4, r1	; 0x8000d4 <BTN0Checking_counts.1803>
				}
				
			}
			else
			{
				button_status=NUMBER_ZERO;
     532:	80 e0       	ldi	r24, 0x00	; 0
     534:	08 95       	ret
				BTN0Checking_counts =NUMBER_ZERO;
				
			}
			break;
		case BTN1:
			if( (Gpio_PinRead(BUTTON1_PORT,BUTTON1_PIN) == HIGH)  )
     536:	62 e0       	ldi	r22, 0x02	; 2
     538:	81 e0       	ldi	r24, 0x01	; 1
     53a:	0e 94 97 0d 	call	0x1b2e	; 0x1b2e <Gpio_PinRead>
     53e:	81 30       	cpi	r24, 0x01	; 1
     540:	61 f4       	brne	.+24     	; 0x55a <BTN_Read+0x5a>
			{
				if ((BTN1Checking_counts == NUMBER_ONE))
     542:	80 91 d3 00 	lds	r24, 0x00D3	; 0x8000d3 <BTN1Checking_counts.1804>
     546:	81 30       	cpi	r24, 0x01	; 1
     548:	19 f4       	brne	.+6      	; 0x550 <BTN_Read+0x50>
				{
					button_status =HIGH;
					BTN1Checking_counts=NUMBER_ZERO;
     54a:	10 92 d3 00 	sts	0x00D3, r1	; 0x8000d3 <BTN1Checking_counts.1804>
     54e:	08 95       	ret
				}
				else
				{
					BTN1Checking_counts++;
     550:	8f 5f       	subi	r24, 0xFF	; 255
     552:	80 93 d3 00 	sts	0x00D3, r24	; 0x8000d3 <BTN1Checking_counts.1804>
}
static uint8 BTN_Read(uint8 btn)
{
	static uint8 BTN0Checking_counts=NUMBER_ZERO;
	static uint8 BTN1Checking_counts=NUMBER_ZERO;
	uint8 button_status=LOW;
     556:	80 e0       	ldi	r24, 0x00	; 0
     558:	08 95       	ret
				
			}
			else
			{
				button_status=NUMBER_ZERO;
				BTN1Checking_counts =NUMBER_ZERO;
     55a:	10 92 d3 00 	sts	0x00D3, r1	; 0x8000d3 <BTN1Checking_counts.1804>
				}
				
			}
			else
			{
				button_status=NUMBER_ZERO;
     55e:	80 e0       	ldi	r24, 0x00	; 0
     560:	08 95       	ret
}
static uint8 BTN_Read(uint8 btn)
{
	static uint8 BTN0Checking_counts=NUMBER_ZERO;
	static uint8 BTN1Checking_counts=NUMBER_ZERO;
	uint8 button_status=LOW;
     562:	80 e0       	ldi	r24, 0x00	; 0
				
			}
			break;
	}
	return button_status;
}
     564:	08 95       	ret

00000566 <BTN_init>:
*
*   @return void
****************************************************************************/
void BTN_init(void)
{
	BUTTON0_DIR &= ~(1<<BUTTON0_PIN);
     566:	a4 98       	cbi	0x14, 4	; 20
	BUTTON1_DIR &= ~(1<<BUTTON1_PIN);
     568:	ba 98       	cbi	0x17, 2	; 23
     56a:	08 95       	ret

0000056c <BTN_Read_Undebounce>:
			break;
	}
	return button_status;
}
uint8 BTN_Read_Undebounce(uint8 btn)
{
     56c:	cf 93       	push	r28
     56e:	c8 2f       	mov	r28, r24
	BTN_Read(btn);
     570:	0e 94 80 02 	call	0x500	; 0x500 <BTN_Read>
	//_delay_ms(20);
	return BTN_Read(btn);
     574:	8c 2f       	mov	r24, r28
     576:	0e 94 80 02 	call	0x500	; 0x500 <BTN_Read>
     57a:	cf 91       	pop	r28
     57c:	08 95       	ret

0000057e <LCD_SendCommand>:
	
	static uint8 lsu8_CmdState = CLEAR_RS_RW_STATE;
	uint8 sendCmdStatus=SEND_CMD_NOT_FINISHED;
	
	
		switch(lsu8_CmdState)
     57e:	e0 91 d7 00 	lds	r30, 0x00D7	; 0x8000d7 <lsu8_CmdState.1992>
     582:	4e 2f       	mov	r20, r30
     584:	50 e0       	ldi	r21, 0x00	; 0
     586:	48 30       	cpi	r20, 0x08	; 8
     588:	51 05       	cpc	r21, r1
     58a:	08 f0       	brcs	.+2      	; 0x58e <LCD_SendCommand+0x10>
     58c:	41 c0       	rjmp	.+130    	; 0x610 <LCD_SendCommand+0x92>
     58e:	fa 01       	movw	r30, r20
     590:	e6 5d       	subi	r30, 0xD6	; 214
     592:	ff 4f       	sbci	r31, 0xFF	; 255
     594:	0c 94 21 0e 	jmp	0x1c42	; 0x1c42 <__tablejump2__>
		{
			case CLEAR_RS_RW_STATE :
				Gpio_PinWrite_Same_Value(LCD_CTL_PORT,1<<RS,LOW);
     598:	40 e0       	ldi	r20, 0x00	; 0
     59a:	62 e0       	ldi	r22, 0x02	; 2
     59c:	80 e0       	ldi	r24, 0x00	; 0
     59e:	0e 94 4f 0d 	call	0x1a9e	; 0x1a9e <Gpio_PinWrite_Same_Value>
				Gpio_PinWrite_Same_Value(LCD_CTL_PORT,1<<RW,LOW);
     5a2:	40 e0       	ldi	r20, 0x00	; 0
     5a4:	64 e0       	ldi	r22, 0x04	; 4
     5a6:	80 e0       	ldi	r24, 0x00	; 0
     5a8:	0e 94 4f 0d 	call	0x1a9e	; 0x1a9e <Gpio_PinWrite_Same_Value>
****************************************************************************/
uint8 LCD_SendCommand(uint8 cmd)
{
	
	static uint8 lsu8_CmdState = CLEAR_RS_RW_STATE;
	uint8 sendCmdStatus=SEND_CMD_NOT_FINISHED;
     5ac:	80 e0       	ldi	r24, 0x00	; 0
		{
			case CLEAR_RS_RW_STATE :
				Gpio_PinWrite_Same_Value(LCD_CTL_PORT,1<<RS,LOW);
				Gpio_PinWrite_Same_Value(LCD_CTL_PORT,1<<RW,LOW);
				
				break;
     5ae:	31 c0       	rjmp	.+98     	; 0x612 <LCD_SendCommand+0x94>
			case SET_ENABLE_STATE_HIGH_NIBBLE:
				Gpio_PinWrite_Same_Value(LCD_CTL_PORT,1<<E,HIGH);
     5b0:	41 e0       	ldi	r20, 0x01	; 1
     5b2:	68 e0       	ldi	r22, 0x08	; 8
     5b4:	80 e0       	ldi	r24, 0x00	; 0
     5b6:	0e 94 4f 0d 	call	0x1a9e	; 0x1a9e <Gpio_PinWrite_Same_Value>
****************************************************************************/
uint8 LCD_SendCommand(uint8 cmd)
{
	
	static uint8 lsu8_CmdState = CLEAR_RS_RW_STATE;
	uint8 sendCmdStatus=SEND_CMD_NOT_FINISHED;
     5ba:	80 e0       	ldi	r24, 0x00	; 0
				
				break;
			case SET_ENABLE_STATE_HIGH_NIBBLE:
				Gpio_PinWrite_Same_Value(LCD_CTL_PORT,1<<E,HIGH);
				
				break;
     5bc:	2a c0       	rjmp	.+84     	; 0x612 <LCD_SendCommand+0x94>
			case SET_HIGH_NIBBLE_DATA :
				Gpio_UpperNibbleWrite(LCD_DAT_PORT,(cmd&0xf0 )>>4);
     5be:	68 2f       	mov	r22, r24
     5c0:	62 95       	swap	r22
     5c2:	6f 70       	andi	r22, 0x0F	; 15
     5c4:	80 e0       	ldi	r24, 0x00	; 0
     5c6:	0e 94 f5 0d 	call	0x1bea	; 0x1bea <Gpio_UpperNibbleWrite>
****************************************************************************/
uint8 LCD_SendCommand(uint8 cmd)
{
	
	static uint8 lsu8_CmdState = CLEAR_RS_RW_STATE;
	uint8 sendCmdStatus=SEND_CMD_NOT_FINISHED;
     5ca:	80 e0       	ldi	r24, 0x00	; 0
				
				break;
			case SET_HIGH_NIBBLE_DATA :
				Gpio_UpperNibbleWrite(LCD_DAT_PORT,(cmd&0xf0 )>>4);
				
				break;
     5cc:	22 c0       	rjmp	.+68     	; 0x612 <LCD_SendCommand+0x94>
			case CLEAR_ENABLE_STATE_HIGH_NIBBLE :
				Gpio_PinWrite_Same_Value(LCD_CTL_PORT,1<<E,LOW); /* disable LCD E=0 */
     5ce:	40 e0       	ldi	r20, 0x00	; 0
     5d0:	68 e0       	ldi	r22, 0x08	; 8
     5d2:	80 e0       	ldi	r24, 0x00	; 0
     5d4:	0e 94 4f 0d 	call	0x1a9e	; 0x1a9e <Gpio_PinWrite_Same_Value>
****************************************************************************/
uint8 LCD_SendCommand(uint8 cmd)
{
	
	static uint8 lsu8_CmdState = CLEAR_RS_RW_STATE;
	uint8 sendCmdStatus=SEND_CMD_NOT_FINISHED;
     5d8:	80 e0       	ldi	r24, 0x00	; 0
				
				break;
			case CLEAR_ENABLE_STATE_HIGH_NIBBLE :
				Gpio_PinWrite_Same_Value(LCD_CTL_PORT,1<<E,LOW); /* disable LCD E=0 */
				
				break;
     5da:	1b c0       	rjmp	.+54     	; 0x612 <LCD_SendCommand+0x94>
			case SET_ENABLE_STATE_LOW_NIBBLE:
				Gpio_PinWrite_Same_Value(LCD_CTL_PORT,1<<E,HIGH); /* Enable LCD E=1 */
     5dc:	41 e0       	ldi	r20, 0x01	; 1
     5de:	68 e0       	ldi	r22, 0x08	; 8
     5e0:	80 e0       	ldi	r24, 0x00	; 0
     5e2:	0e 94 4f 0d 	call	0x1a9e	; 0x1a9e <Gpio_PinWrite_Same_Value>
****************************************************************************/
uint8 LCD_SendCommand(uint8 cmd)
{
	
	static uint8 lsu8_CmdState = CLEAR_RS_RW_STATE;
	uint8 sendCmdStatus=SEND_CMD_NOT_FINISHED;
     5e6:	80 e0       	ldi	r24, 0x00	; 0
				
				break;
			case SET_ENABLE_STATE_LOW_NIBBLE:
				Gpio_PinWrite_Same_Value(LCD_CTL_PORT,1<<E,HIGH); /* Enable LCD E=1 */
				
				break;
     5e8:	14 c0       	rjmp	.+40     	; 0x612 <LCD_SendCommand+0x94>
			case SET_LOW_NIBBLE_DATA:
			/* out the lowest 4 bits of the required command to the data bus D4 --> D7 */
				Gpio_UpperNibbleWrite(LCD_DAT_PORT,(cmd&0x0f ));
     5ea:	68 2f       	mov	r22, r24
     5ec:	6f 70       	andi	r22, 0x0F	; 15
     5ee:	80 e0       	ldi	r24, 0x00	; 0
     5f0:	0e 94 f5 0d 	call	0x1bea	; 0x1bea <Gpio_UpperNibbleWrite>
****************************************************************************/
uint8 LCD_SendCommand(uint8 cmd)
{
	
	static uint8 lsu8_CmdState = CLEAR_RS_RW_STATE;
	uint8 sendCmdStatus=SEND_CMD_NOT_FINISHED;
     5f4:	80 e0       	ldi	r24, 0x00	; 0
				break;
			case SET_LOW_NIBBLE_DATA:
			/* out the lowest 4 bits of the required command to the data bus D4 --> D7 */
				Gpio_UpperNibbleWrite(LCD_DAT_PORT,(cmd&0x0f ));
				
				break;
     5f6:	0d c0       	rjmp	.+26     	; 0x612 <LCD_SendCommand+0x94>
			case CLEAR_ENABLE_STATE_LOW_NIBBLE:
				Gpio_PinWrite_Same_Value(LCD_CTL_PORT,1<<E,LOW); /* disable LCD E=0 */
     5f8:	40 e0       	ldi	r20, 0x00	; 0
     5fa:	68 e0       	ldi	r22, 0x08	; 8
     5fc:	80 e0       	ldi	r24, 0x00	; 0
     5fe:	0e 94 4f 0d 	call	0x1a9e	; 0x1a9e <Gpio_PinWrite_Same_Value>
****************************************************************************/
uint8 LCD_SendCommand(uint8 cmd)
{
	
	static uint8 lsu8_CmdState = CLEAR_RS_RW_STATE;
	uint8 sendCmdStatus=SEND_CMD_NOT_FINISHED;
     602:	80 e0       	ldi	r24, 0x00	; 0
				Gpio_UpperNibbleWrite(LCD_DAT_PORT,(cmd&0x0f ));
				
				break;
			case CLEAR_ENABLE_STATE_LOW_NIBBLE:
				Gpio_PinWrite_Same_Value(LCD_CTL_PORT,1<<E,LOW); /* disable LCD E=0 */
				break;
     604:	06 c0       	rjmp	.+12     	; 0x612 <LCD_SendCommand+0x94>
			case WAIT_CLEAR_ENABLE_STATE_LOW_NIBBLE :
				lsu8_CmdState =-1;
     606:	8f ef       	ldi	r24, 0xFF	; 255
     608:	80 93 d7 00 	sts	0x00D7, r24	; 0x8000d7 <lsu8_CmdState.1992>
				sendCmdStatus=SEND_CMD_FINISHED;
     60c:	81 e0       	ldi	r24, 0x01	; 1
				
				break;
     60e:	01 c0       	rjmp	.+2      	; 0x612 <LCD_SendCommand+0x94>
****************************************************************************/
uint8 LCD_SendCommand(uint8 cmd)
{
	
	static uint8 lsu8_CmdState = CLEAR_RS_RW_STATE;
	uint8 sendCmdStatus=SEND_CMD_NOT_FINISHED;
     610:	80 e0       	ldi	r24, 0x00	; 0
				
				break;
			
		
		}
		++lsu8_CmdState;
     612:	90 91 d7 00 	lds	r25, 0x00D7	; 0x8000d7 <lsu8_CmdState.1992>
     616:	9f 5f       	subi	r25, 0xFF	; 255
     618:	90 93 d7 00 	sts	0x00D7, r25	; 0x8000d7 <lsu8_CmdState.1992>
	
	return sendCmdStatus;
}
     61c:	08 95       	ret

0000061e <LCD_init>:
*   @params  name : void
*
*   @return uint8
****************************************************************************/
uint8 LCD_init(void)
{
     61e:	cf 93       	push	r28
	static uint8 u8_InitState = INIT_STATE_LCD_DIR_AND_MODE;
	uint8 InitStatus=INIT_LCD_NOT_FINISHED;
	
	  
	switch(u8_InitState)
     620:	c0 91 d8 00 	lds	r28, 0x00D8	; 0x8000d8 <u8_InitState.1980>
     624:	c2 30       	cpi	r28, 0x02	; 2
     626:	69 f1       	breq	.+90     	; 0x682 <LCD_init+0x64>
     628:	28 f4       	brcc	.+10     	; 0x634 <LCD_init+0x16>
     62a:	cc 23       	and	r28, r28
     62c:	41 f0       	breq	.+16     	; 0x63e <LCD_init+0x20>
     62e:	c1 30       	cpi	r28, 0x01	; 1
     630:	f1 f0       	breq	.+60     	; 0x66e <LCD_init+0x50>
     632:	3e c0       	rjmp	.+124    	; 0x6b0 <LCD_init+0x92>
     634:	c3 30       	cpi	r28, 0x03	; 3
     636:	79 f1       	breq	.+94     	; 0x696 <LCD_init+0x78>
     638:	c4 30       	cpi	r28, 0x04	; 4
     63a:	79 f0       	breq	.+30     	; 0x65a <LCD_init+0x3c>
     63c:	39 c0       	rjmp	.+114    	; 0x6b0 <LCD_init+0x92>
	{
		case INIT_STATE_LCD_DIR_AND_MODE  :
			Gpio_PinDirection(LCD_CTL_PORT,(1<<E) | (1<<RS) | (1<<RW),OUTPUT);
     63e:	41 e0       	ldi	r20, 0x01	; 1
     640:	6e e0       	ldi	r22, 0x0E	; 14
     642:	80 e0       	ldi	r24, 0x00	; 0
     644:	0e 94 1b 0d 	call	0x1a36	; 0x1a36 <Gpio_PinDirection>
			Gpio_UpperNibbleDirection(LCD_DAT_PORT,OUTPUT);
     648:	61 e0       	ldi	r22, 0x01	; 1
     64a:	80 e0       	ldi	r24, 0x00	; 0
     64c:	0e 94 c5 0d 	call	0x1b8a	; 0x1b8a <Gpio_UpperNibbleDirection>
			u8_InitState = INIT_STATE_LCD_MODE;
     650:	84 e0       	ldi	r24, 0x04	; 4
     652:	80 93 d8 00 	sts	0x00D8, r24	; 0x8000d8 <u8_InitState.1980>
*   @return uint8
****************************************************************************/
uint8 LCD_init(void)
{
	static uint8 u8_InitState = INIT_STATE_LCD_DIR_AND_MODE;
	uint8 InitStatus=INIT_LCD_NOT_FINISHED;
     656:	80 e0       	ldi	r24, 0x00	; 0
	{
		case INIT_STATE_LCD_DIR_AND_MODE  :
			Gpio_PinDirection(LCD_CTL_PORT,(1<<E) | (1<<RS) | (1<<RW),OUTPUT);
			Gpio_UpperNibbleDirection(LCD_DAT_PORT,OUTPUT);
			u8_InitState = INIT_STATE_LCD_MODE;
			break;
     658:	2c c0       	rjmp	.+88     	; 0x6b2 <LCD_init+0x94>
		case  INIT_STATE_LCD_MODE :
			u8_InitState  =	LCD_SendCommand(FOUR_BITS_DATA_MODE) == SEND_CMD_FINISHED ? INIT_STATE_LCD_INFO_SEND : INIT_STATE_LCD_MODE  ; /* initialize LCD in 4-bit mode */
     65a:	82 e0       	ldi	r24, 0x02	; 2
     65c:	0e 94 bf 02 	call	0x57e	; 0x57e <LCD_SendCommand>
     660:	81 30       	cpi	r24, 0x01	; 1
     662:	09 f4       	brne	.+2      	; 0x666 <LCD_init+0x48>
     664:	c8 2f       	mov	r28, r24
     666:	c0 93 d8 00 	sts	0x00D8, r28	; 0x8000d8 <u8_InitState.1980>
*   @return uint8
****************************************************************************/
uint8 LCD_init(void)
{
	static uint8 u8_InitState = INIT_STATE_LCD_DIR_AND_MODE;
	uint8 InitStatus=INIT_LCD_NOT_FINISHED;
     66a:	80 e0       	ldi	r24, 0x00	; 0
			Gpio_UpperNibbleDirection(LCD_DAT_PORT,OUTPUT);
			u8_InitState = INIT_STATE_LCD_MODE;
			break;
		case  INIT_STATE_LCD_MODE :
			u8_InitState  =	LCD_SendCommand(FOUR_BITS_DATA_MODE) == SEND_CMD_FINISHED ? INIT_STATE_LCD_INFO_SEND : INIT_STATE_LCD_MODE  ; /* initialize LCD in 4-bit mode */
			break;
     66c:	22 c0       	rjmp	.+68     	; 0x6b2 <LCD_init+0x94>
		case INIT_STATE_LCD_INFO_SEND : 
			u8_InitState =	LCD_SendCommand(TWO_LINE_LCD_Four_BIT_MODE)== SEND_CMD_FINISHED ? INIT_STATE_LCD_CURSOR_OFF_SEND : INIT_STATE_LCD_INFO_SEND  ; /* use 2-line lcd + 4-bit Data Mode + 5*7 dot display Mode */
     66e:	88 e2       	ldi	r24, 0x28	; 40
     670:	0e 94 bf 02 	call	0x57e	; 0x57e <LCD_SendCommand>
     674:	81 30       	cpi	r24, 0x01	; 1
     676:	09 f4       	brne	.+2      	; 0x67a <LCD_init+0x5c>
     678:	c2 e0       	ldi	r28, 0x02	; 2
     67a:	c0 93 d8 00 	sts	0x00D8, r28	; 0x8000d8 <u8_InitState.1980>
*   @return uint8
****************************************************************************/
uint8 LCD_init(void)
{
	static uint8 u8_InitState = INIT_STATE_LCD_DIR_AND_MODE;
	uint8 InitStatus=INIT_LCD_NOT_FINISHED;
     67e:	80 e0       	ldi	r24, 0x00	; 0
		case  INIT_STATE_LCD_MODE :
			u8_InitState  =	LCD_SendCommand(FOUR_BITS_DATA_MODE) == SEND_CMD_FINISHED ? INIT_STATE_LCD_INFO_SEND : INIT_STATE_LCD_MODE  ; /* initialize LCD in 4-bit mode */
			break;
		case INIT_STATE_LCD_INFO_SEND : 
			u8_InitState =	LCD_SendCommand(TWO_LINE_LCD_Four_BIT_MODE)== SEND_CMD_FINISHED ? INIT_STATE_LCD_CURSOR_OFF_SEND : INIT_STATE_LCD_INFO_SEND  ; /* use 2-line lcd + 4-bit Data Mode + 5*7 dot display Mode */
			break; 
     680:	18 c0       	rjmp	.+48     	; 0x6b2 <LCD_init+0x94>
		case INIT_STATE_LCD_CURSOR_OFF_SEND:
			u8_InitState= LCD_SendCommand(CURSOR_OFF) == SEND_CMD_FINISHED ? INIT_STATE_LCD_CLEAR_SEND : INIT_STATE_LCD_CURSOR_OFF_SEND  ; /* cursor off */
     682:	8c e0       	ldi	r24, 0x0C	; 12
     684:	0e 94 bf 02 	call	0x57e	; 0x57e <LCD_SendCommand>
     688:	81 30       	cpi	r24, 0x01	; 1
     68a:	09 f4       	brne	.+2      	; 0x68e <LCD_init+0x70>
     68c:	c3 e0       	ldi	r28, 0x03	; 3
     68e:	c0 93 d8 00 	sts	0x00D8, r28	; 0x8000d8 <u8_InitState.1980>
*   @return uint8
****************************************************************************/
uint8 LCD_init(void)
{
	static uint8 u8_InitState = INIT_STATE_LCD_DIR_AND_MODE;
	uint8 InitStatus=INIT_LCD_NOT_FINISHED;
     692:	80 e0       	ldi	r24, 0x00	; 0
		case INIT_STATE_LCD_INFO_SEND : 
			u8_InitState =	LCD_SendCommand(TWO_LINE_LCD_Four_BIT_MODE)== SEND_CMD_FINISHED ? INIT_STATE_LCD_CURSOR_OFF_SEND : INIT_STATE_LCD_INFO_SEND  ; /* use 2-line lcd + 4-bit Data Mode + 5*7 dot display Mode */
			break; 
		case INIT_STATE_LCD_CURSOR_OFF_SEND:
			u8_InitState= LCD_SendCommand(CURSOR_OFF) == SEND_CMD_FINISHED ? INIT_STATE_LCD_CLEAR_SEND : INIT_STATE_LCD_CURSOR_OFF_SEND  ; /* cursor off */
			break;
     694:	0e c0       	rjmp	.+28     	; 0x6b2 <LCD_init+0x94>
		case INIT_STATE_LCD_CLEAR_SEND :
			u8_InitState = LCD_SendCommand(CLEAR_COMMAND) == SEND_CMD_FINISHED ? INIT_STATE_LCD_DIR_AND_MODE : INIT_STATE_LCD_CLEAR_SEND ; /* clear LCD at the beginning */
     696:	81 e0       	ldi	r24, 0x01	; 1
     698:	0e 94 bf 02 	call	0x57e	; 0x57e <LCD_SendCommand>
     69c:	81 30       	cpi	r24, 0x01	; 1
     69e:	09 f4       	brne	.+2      	; 0x6a2 <LCD_init+0x84>
     6a0:	c0 e0       	ldi	r28, 0x00	; 0
     6a2:	c0 93 d8 00 	sts	0x00D8, r28	; 0x8000d8 <u8_InitState.1980>
			InitStatus=  (u8_InitState == INIT_STATE_LCD_DIR_AND_MODE) ? INIT_LCD_FINISHED :INIT_LCD_NOT_FINISHED;
     6a6:	81 e0       	ldi	r24, 0x01	; 1
     6a8:	cc 23       	and	r28, r28
     6aa:	19 f0       	breq	.+6      	; 0x6b2 <LCD_init+0x94>
     6ac:	80 e0       	ldi	r24, 0x00	; 0
			break;
     6ae:	01 c0       	rjmp	.+2      	; 0x6b2 <LCD_init+0x94>
*   @return uint8
****************************************************************************/
uint8 LCD_init(void)
{
	static uint8 u8_InitState = INIT_STATE_LCD_DIR_AND_MODE;
	uint8 InitStatus=INIT_LCD_NOT_FINISHED;
     6b0:	80 e0       	ldi	r24, 0x00	; 0
			break;
		default:
		 break;
	}
	return InitStatus;
}
     6b2:	cf 91       	pop	r28
     6b4:	08 95       	ret

000006b6 <LCD_DisplayChar>:
	
	
	static uint8 lsu8_DataState =CLEAR_RS_RW_STATE;
	uint8 sendDataStatus = SEND_DATA_NOT_FINISHED;
		
		switch(lsu8_DataState)
     6b6:	e0 91 d6 00 	lds	r30, 0x00D6	; 0x8000d6 <lsu8_DataState.2007>
     6ba:	4e 2f       	mov	r20, r30
     6bc:	50 e0       	ldi	r21, 0x00	; 0
     6be:	48 30       	cpi	r20, 0x08	; 8
     6c0:	51 05       	cpc	r21, r1
     6c2:	08 f0       	brcs	.+2      	; 0x6c6 <LCD_DisplayChar+0x10>
     6c4:	41 c0       	rjmp	.+130    	; 0x748 <LCD_DisplayChar+0x92>
     6c6:	fa 01       	movw	r30, r20
     6c8:	ee 5c       	subi	r30, 0xCE	; 206
     6ca:	ff 4f       	sbci	r31, 0xFF	; 255
     6cc:	0c 94 21 0e 	jmp	0x1c42	; 0x1c42 <__tablejump2__>
		{
			case SET_RS_CLEAR_RW_STATE :
				Gpio_PinWrite_Same_Value(LCD_CTL_PORT,1<<RS,HIGH);
     6d0:	41 e0       	ldi	r20, 0x01	; 1
     6d2:	62 e0       	ldi	r22, 0x02	; 2
     6d4:	80 e0       	ldi	r24, 0x00	; 0
     6d6:	0e 94 4f 0d 	call	0x1a9e	; 0x1a9e <Gpio_PinWrite_Same_Value>
				Gpio_PinWrite_Same_Value(LCD_CTL_PORT,1<<RW,LOW);
     6da:	40 e0       	ldi	r20, 0x00	; 0
     6dc:	64 e0       	ldi	r22, 0x04	; 4
     6de:	80 e0       	ldi	r24, 0x00	; 0
     6e0:	0e 94 4f 0d 	call	0x1a9e	; 0x1a9e <Gpio_PinWrite_Same_Value>
uint8 LCD_DisplayChar(uint8 data)
{
	
	
	static uint8 lsu8_DataState =CLEAR_RS_RW_STATE;
	uint8 sendDataStatus = SEND_DATA_NOT_FINISHED;
     6e4:	80 e0       	ldi	r24, 0x00	; 0
		{
			case SET_RS_CLEAR_RW_STATE :
				Gpio_PinWrite_Same_Value(LCD_CTL_PORT,1<<RS,HIGH);
				Gpio_PinWrite_Same_Value(LCD_CTL_PORT,1<<RW,LOW);
			
				break;
     6e6:	31 c0       	rjmp	.+98     	; 0x74a <LCD_DisplayChar+0x94>
			case SET_ENABLE_STATE_HIGH_NIBBLE:
				Gpio_PinWrite_Same_Value(LCD_CTL_PORT,1<<E,HIGH);
     6e8:	41 e0       	ldi	r20, 0x01	; 1
     6ea:	68 e0       	ldi	r22, 0x08	; 8
     6ec:	80 e0       	ldi	r24, 0x00	; 0
     6ee:	0e 94 4f 0d 	call	0x1a9e	; 0x1a9e <Gpio_PinWrite_Same_Value>
uint8 LCD_DisplayChar(uint8 data)
{
	
	
	static uint8 lsu8_DataState =CLEAR_RS_RW_STATE;
	uint8 sendDataStatus = SEND_DATA_NOT_FINISHED;
     6f2:	80 e0       	ldi	r24, 0x00	; 0
			
				break;
			case SET_ENABLE_STATE_HIGH_NIBBLE:
				Gpio_PinWrite_Same_Value(LCD_CTL_PORT,1<<E,HIGH);
			
				break;
     6f4:	2a c0       	rjmp	.+84     	; 0x74a <LCD_DisplayChar+0x94>
				
			case SET_HIGH_NIBBLE_DATA :
				Gpio_UpperNibbleWrite(LCD_DAT_PORT,(data&0xf0 )>>4);
     6f6:	68 2f       	mov	r22, r24
     6f8:	62 95       	swap	r22
     6fa:	6f 70       	andi	r22, 0x0F	; 15
     6fc:	80 e0       	ldi	r24, 0x00	; 0
     6fe:	0e 94 f5 0d 	call	0x1bea	; 0x1bea <Gpio_UpperNibbleWrite>
uint8 LCD_DisplayChar(uint8 data)
{
	
	
	static uint8 lsu8_DataState =CLEAR_RS_RW_STATE;
	uint8 sendDataStatus = SEND_DATA_NOT_FINISHED;
     702:	80 e0       	ldi	r24, 0x00	; 0
				break;
				
			case SET_HIGH_NIBBLE_DATA :
				Gpio_UpperNibbleWrite(LCD_DAT_PORT,(data&0xf0 )>>4);
			
				break;
     704:	22 c0       	rjmp	.+68     	; 0x74a <LCD_DisplayChar+0x94>
			case CLEAR_ENABLE_STATE_HIGH_NIBBLE :
				Gpio_PinWrite_Same_Value(LCD_CTL_PORT,1<<E,LOW); /* disable LCD E=0 */
     706:	40 e0       	ldi	r20, 0x00	; 0
     708:	68 e0       	ldi	r22, 0x08	; 8
     70a:	80 e0       	ldi	r24, 0x00	; 0
     70c:	0e 94 4f 0d 	call	0x1a9e	; 0x1a9e <Gpio_PinWrite_Same_Value>
uint8 LCD_DisplayChar(uint8 data)
{
	
	
	static uint8 lsu8_DataState =CLEAR_RS_RW_STATE;
	uint8 sendDataStatus = SEND_DATA_NOT_FINISHED;
     710:	80 e0       	ldi	r24, 0x00	; 0
			
				break;
			case CLEAR_ENABLE_STATE_HIGH_NIBBLE :
				Gpio_PinWrite_Same_Value(LCD_CTL_PORT,1<<E,LOW); /* disable LCD E=0 */
			
				break;
     712:	1b c0       	rjmp	.+54     	; 0x74a <LCD_DisplayChar+0x94>
			case SET_ENABLE_STATE_LOW_NIBBLE:
				Gpio_PinWrite_Same_Value(LCD_CTL_PORT,1<<E,HIGH); /* Enable LCD E=1 */
     714:	41 e0       	ldi	r20, 0x01	; 1
     716:	68 e0       	ldi	r22, 0x08	; 8
     718:	80 e0       	ldi	r24, 0x00	; 0
     71a:	0e 94 4f 0d 	call	0x1a9e	; 0x1a9e <Gpio_PinWrite_Same_Value>
uint8 LCD_DisplayChar(uint8 data)
{
	
	
	static uint8 lsu8_DataState =CLEAR_RS_RW_STATE;
	uint8 sendDataStatus = SEND_DATA_NOT_FINISHED;
     71e:	80 e0       	ldi	r24, 0x00	; 0
			
				break;
			case SET_ENABLE_STATE_LOW_NIBBLE:
				Gpio_PinWrite_Same_Value(LCD_CTL_PORT,1<<E,HIGH); /* Enable LCD E=1 */
			
				break;
     720:	14 c0       	rjmp	.+40     	; 0x74a <LCD_DisplayChar+0x94>
			case SET_LOW_NIBBLE_DATA:
				/* out the lowest 4 bits of the required command to the data bus D4 --> D7 */
				Gpio_UpperNibbleWrite(LCD_DAT_PORT,(data&0x0f ));
     722:	68 2f       	mov	r22, r24
     724:	6f 70       	andi	r22, 0x0F	; 15
     726:	80 e0       	ldi	r24, 0x00	; 0
     728:	0e 94 f5 0d 	call	0x1bea	; 0x1bea <Gpio_UpperNibbleWrite>
uint8 LCD_DisplayChar(uint8 data)
{
	
	
	static uint8 lsu8_DataState =CLEAR_RS_RW_STATE;
	uint8 sendDataStatus = SEND_DATA_NOT_FINISHED;
     72c:	80 e0       	ldi	r24, 0x00	; 0
				break;
			case SET_LOW_NIBBLE_DATA:
				/* out the lowest 4 bits of the required command to the data bus D4 --> D7 */
				Gpio_UpperNibbleWrite(LCD_DAT_PORT,(data&0x0f ));
			
				break;
     72e:	0d c0       	rjmp	.+26     	; 0x74a <LCD_DisplayChar+0x94>
			case CLEAR_ENABLE_STATE_LOW_NIBBLE:
				Gpio_PinWrite_Same_Value(LCD_CTL_PORT,1<<E,LOW); /* disable LCD E=0 */
     730:	40 e0       	ldi	r20, 0x00	; 0
     732:	68 e0       	ldi	r22, 0x08	; 8
     734:	80 e0       	ldi	r24, 0x00	; 0
     736:	0e 94 4f 0d 	call	0x1a9e	; 0x1a9e <Gpio_PinWrite_Same_Value>
uint8 LCD_DisplayChar(uint8 data)
{
	
	
	static uint8 lsu8_DataState =CLEAR_RS_RW_STATE;
	uint8 sendDataStatus = SEND_DATA_NOT_FINISHED;
     73a:	80 e0       	ldi	r24, 0x00	; 0
				Gpio_UpperNibbleWrite(LCD_DAT_PORT,(data&0x0f ));
			
				break;
			case CLEAR_ENABLE_STATE_LOW_NIBBLE:
				Gpio_PinWrite_Same_Value(LCD_CTL_PORT,1<<E,LOW); /* disable LCD E=0 */
				break;
     73c:	06 c0       	rjmp	.+12     	; 0x74a <LCD_DisplayChar+0x94>
			case WAIT_CLEAR_ENABLE_STATE_LOW_NIBBLE:
				sendDataStatus = SEND_DATA_FINISHED;
				lsu8_DataState=-1;
     73e:	8f ef       	ldi	r24, 0xFF	; 255
     740:	80 93 d6 00 	sts	0x00D6, r24	; 0x8000d6 <lsu8_DataState.2007>
				break;
			case CLEAR_ENABLE_STATE_LOW_NIBBLE:
				Gpio_PinWrite_Same_Value(LCD_CTL_PORT,1<<E,LOW); /* disable LCD E=0 */
				break;
			case WAIT_CLEAR_ENABLE_STATE_LOW_NIBBLE:
				sendDataStatus = SEND_DATA_FINISHED;
     744:	81 e0       	ldi	r24, 0x01	; 1
				lsu8_DataState=-1;
			
			break;
     746:	01 c0       	rjmp	.+2      	; 0x74a <LCD_DisplayChar+0x94>
uint8 LCD_DisplayChar(uint8 data)
{
	
	
	static uint8 lsu8_DataState =CLEAR_RS_RW_STATE;
	uint8 sendDataStatus = SEND_DATA_NOT_FINISHED;
     748:	80 e0       	ldi	r24, 0x00	; 0
				
			break;
			
			
		}
		++lsu8_DataState;
     74a:	90 91 d6 00 	lds	r25, 0x00D6	; 0x8000d6 <lsu8_DataState.2007>
     74e:	9f 5f       	subi	r25, 0xFF	; 255
     750:	90 93 d6 00 	sts	0x00D6, r25	; 0x8000d6 <lsu8_DataState.2007>

	
	return sendDataStatus;
	
}
     754:	08 95       	ret

00000756 <LCD_DisplayString>:
****************************************************************************/
uint8 LCD_DisplayString(const char *Str)
{
	static uint8 i = 0;
	uint8 print_State =PRINT_STRING_LCD_NOT_FINISHED;
	if ((Str[i] != '\0'))
     756:	20 91 d5 00 	lds	r18, 0x00D5	; 0x8000d5 <i.2022>
     75a:	82 0f       	add	r24, r18
     75c:	91 1d       	adc	r25, r1
     75e:	fc 01       	movw	r30, r24
     760:	80 81       	ld	r24, Z
     762:	88 23       	and	r24, r24
     764:	59 f0       	breq	.+22     	; 0x77c <LCD_DisplayString+0x26>
	{
	 if (LCD_DisplayChar(Str[i]) == SEND_DATA_FINISHED)
     766:	0e 94 5b 03 	call	0x6b6	; 0x6b6 <LCD_DisplayChar>
     76a:	81 30       	cpi	r24, 0x01	; 1
     76c:	59 f4       	brne	.+22     	; 0x784 <LCD_DisplayString+0x2e>
	 {
		 i++;
     76e:	80 91 d5 00 	lds	r24, 0x00D5	; 0x8000d5 <i.2022>
     772:	8f 5f       	subi	r24, 0xFF	; 255
     774:	80 93 d5 00 	sts	0x00D5, r24	; 0x8000d5 <i.2022>
*   @return uint8
****************************************************************************/
uint8 LCD_DisplayString(const char *Str)
{
	static uint8 i = 0;
	uint8 print_State =PRINT_STRING_LCD_NOT_FINISHED;
     778:	80 e0       	ldi	r24, 0x00	; 0
     77a:	08 95       	ret
		
	}
	else
	{
		print_State =PRINT_STRING_LCD_FINISHED;
		i=0;
     77c:	10 92 d5 00 	sts	0x00D5, r1	; 0x8000d5 <i.2022>
	 	
		
	}
	else
	{
		print_State =PRINT_STRING_LCD_FINISHED;
     780:	81 e0       	ldi	r24, 0x01	; 1
     782:	08 95       	ret
*   @return uint8
****************************************************************************/
uint8 LCD_DisplayString(const char *Str)
{
	static uint8 i = 0;
	uint8 print_State =PRINT_STRING_LCD_NOT_FINISHED;
     784:	80 e0       	ldi	r24, 0x00	; 0
	{
		print_State =PRINT_STRING_LCD_FINISHED;
		i=0;
	}
	return print_State;
}
     786:	08 95       	ret

00000788 <LCD_GoToRowColumn>:
*
*   @return uint8
****************************************************************************/

uint8 LCD_GoToRowColumn(uint8 row,uint8 col)
{
     788:	cf 93       	push	r28
     78a:	df 93       	push	r29
     78c:	00 d0       	rcall	.+0      	; 0x78e <LCD_GoToRowColumn+0x6>
     78e:	00 d0       	rcall	.+0      	; 0x790 <LCD_GoToRowColumn+0x8>
     790:	cd b7       	in	r28, 0x3d	; 61
     792:	de b7       	in	r29, 0x3e	; 62
	uint8_t firstCharAdress[]={0x80,0xc0,0x94,0xD4};
     794:	90 e8       	ldi	r25, 0x80	; 128
     796:	99 83       	std	Y+1, r25	; 0x01
     798:	90 ec       	ldi	r25, 0xC0	; 192
     79a:	9a 83       	std	Y+2, r25	; 0x02
     79c:	94 e9       	ldi	r25, 0x94	; 148
     79e:	9b 83       	std	Y+3, r25	; 0x03
     7a0:	94 ed       	ldi	r25, 0xD4	; 212
     7a2:	9c 83       	std	Y+4, r25	; 0x04
	return LCD_SendCommand(firstCharAdress[row-1]+col-1);
     7a4:	fe 01       	movw	r30, r28
     7a6:	e8 0f       	add	r30, r24
     7a8:	f1 1d       	adc	r31, r1
     7aa:	61 50       	subi	r22, 0x01	; 1
     7ac:	80 81       	ld	r24, Z
     7ae:	86 0f       	add	r24, r22
     7b0:	0e 94 bf 02 	call	0x57e	; 0x57e <LCD_SendCommand>
	//LCD_SendCommand(Address | SET_CURSOR_LOCATION); 
}
     7b4:	0f 90       	pop	r0
     7b6:	0f 90       	pop	r0
     7b8:	0f 90       	pop	r0
     7ba:	0f 90       	pop	r0
     7bc:	df 91       	pop	r29
     7be:	cf 91       	pop	r28
     7c0:	08 95       	ret

000007c2 <Leds_Init>:
#include "led.h"

void Leds_Init(void)
{

	Gpio_PinDirection(LEDS_PORT,LEDS,OUTPUT);
     7c2:	41 e0       	ldi	r20, 0x01	; 1
     7c4:	60 ef       	ldi	r22, 0xF0	; 240
     7c6:	81 e0       	ldi	r24, 0x01	; 1
     7c8:	0e 94 1b 0d 	call	0x1a36	; 0x1a36 <Gpio_PinDirection>
	Gpio_PinWrite_Same_Value(LEDS_PORT,LEDS,0);
     7cc:	40 e0       	ldi	r20, 0x00	; 0
     7ce:	60 ef       	ldi	r22, 0xF0	; 240
     7d0:	81 e0       	ldi	r24, 0x01	; 1
     7d2:	0e 94 4f 0d 	call	0x1a9e	; 0x1a9e <Gpio_PinWrite_Same_Value>
     7d6:	08 95       	ret

000007d8 <Leds_Toggle>:
}

void Leds_Toggle(uint8 leds)
{
	
	Gpio_PinToggle(LEDS_PORT,leds);
     7d8:	68 2f       	mov	r22, r24
     7da:	81 e0       	ldi	r24, 0x01	; 1
     7dc:	0e 94 7f 0d 	call	0x1afe	; 0x1afe <Gpio_PinToggle>
     7e0:	08 95       	ret

000007e2 <Leds_On>:
}

void Leds_On(uint8 leds)
{
	
	Gpio_PinWrite_Same_Value(LEDS_PORT,leds,HIGH);
     7e2:	41 e0       	ldi	r20, 0x01	; 1
     7e4:	68 2f       	mov	r22, r24
     7e6:	81 e0       	ldi	r24, 0x01	; 1
     7e8:	0e 94 4f 0d 	call	0x1a9e	; 0x1a9e <Gpio_PinWrite_Same_Value>
     7ec:	08 95       	ret

000007ee <pvPortMalloc>:
static size_t xNextFreeByte = ( size_t ) 0;

/*-----------------------------------------------------------*/

void *pvPortMalloc( size_t xWantedSize )
{
     7ee:	cf 93       	push	r28
     7f0:	df 93       	push	r29
     7f2:	ec 01       	movw	r28, r24
			xWantedSize += ( portBYTE_ALIGNMENT - ( xWantedSize & portBYTE_ALIGNMENT_MASK ) );
		}
	}
	#endif

	vTaskSuspendAll();
     7f4:	0e 94 39 0a 	call	0x1472	; 0x1472 <vTaskSuspendAll>
	{
		if( pucAlignedHeap == NULL )
     7f8:	80 91 d9 00 	lds	r24, 0x00D9	; 0x8000d9 <pucAlignedHeap.2085>
     7fc:	90 91 da 00 	lds	r25, 0x00DA	; 0x8000da <pucAlignedHeap.2085+0x1>
     800:	89 2b       	or	r24, r25
     802:	31 f4       	brne	.+12     	; 0x810 <pvPortMalloc+0x22>
		{
			/* Ensure the heap starts on a correctly aligned boundary. */
			pucAlignedHeap = ( uint8_t * ) ( ( ( portPOINTER_SIZE_TYPE ) &ucHeap[ portBYTE_ALIGNMENT ] ) & ( ~( ( portPOINTER_SIZE_TYPE ) portBYTE_ALIGNMENT_MASK ) ) );
     804:	8e ed       	ldi	r24, 0xDE	; 222
     806:	90 e0       	ldi	r25, 0x00	; 0
     808:	90 93 da 00 	sts	0x00DA, r25	; 0x8000da <pucAlignedHeap.2085+0x1>
     80c:	80 93 d9 00 	sts	0x00D9, r24	; 0x8000d9 <pucAlignedHeap.2085>
		}

		/* Check there is enough room left for the allocation. */
		if( ( ( xNextFreeByte + xWantedSize ) < configADJUSTED_HEAP_SIZE ) &&
     810:	20 91 db 00 	lds	r18, 0x00DB	; 0x8000db <xNextFreeByte>
     814:	30 91 dc 00 	lds	r19, 0x00DC	; 0x8000dc <xNextFreeByte+0x1>
     818:	c9 01       	movw	r24, r18
     81a:	8c 0f       	add	r24, r28
     81c:	9d 1f       	adc	r25, r29
     81e:	8b 3d       	cpi	r24, 0xDB	; 219
     820:	45 e0       	ldi	r20, 0x05	; 5
     822:	94 07       	cpc	r25, r20
     824:	70 f4       	brcc	.+28     	; 0x842 <pvPortMalloc+0x54>
     826:	28 17       	cp	r18, r24
     828:	39 07       	cpc	r19, r25
     82a:	70 f4       	brcc	.+28     	; 0x848 <pvPortMalloc+0x5a>
			( ( xNextFreeByte + xWantedSize ) > xNextFreeByte )	)/* Check for overflow. */
		{
			/* Return the next free byte then increment the index past this
			block. */
			pvReturn = pucAlignedHeap + xNextFreeByte;
     82c:	c0 91 d9 00 	lds	r28, 0x00D9	; 0x8000d9 <pucAlignedHeap.2085>
     830:	d0 91 da 00 	lds	r29, 0x00DA	; 0x8000da <pucAlignedHeap.2085+0x1>
     834:	c2 0f       	add	r28, r18
     836:	d3 1f       	adc	r29, r19
			xNextFreeByte += xWantedSize;
     838:	90 93 dc 00 	sts	0x00DC, r25	; 0x8000dc <xNextFreeByte+0x1>
     83c:	80 93 db 00 	sts	0x00DB, r24	; 0x8000db <xNextFreeByte>
     840:	05 c0       	rjmp	.+10     	; 0x84c <pvPortMalloc+0x5e>

/*-----------------------------------------------------------*/

void *pvPortMalloc( size_t xWantedSize )
{
void *pvReturn = NULL;
     842:	c0 e0       	ldi	r28, 0x00	; 0
     844:	d0 e0       	ldi	r29, 0x00	; 0
     846:	02 c0       	rjmp	.+4      	; 0x84c <pvPortMalloc+0x5e>
     848:	c0 e0       	ldi	r28, 0x00	; 0
     84a:	d0 e0       	ldi	r29, 0x00	; 0
			xNextFreeByte += xWantedSize;
		}

		traceMALLOC( pvReturn, xWantedSize );
	}
	( void ) xTaskResumeAll();
     84c:	0e 94 e8 0a 	call	0x15d0	; 0x15d0 <xTaskResumeAll>
		}
	}
	#endif

	return pvReturn;
}
     850:	ce 01       	movw	r24, r28
     852:	df 91       	pop	r29
     854:	cf 91       	pop	r28
     856:	08 95       	ret

00000858 <vPortFree>:
/*-----------------------------------------------------------*/

void vPortFree( void *pv )
{
     858:	08 95       	ret

0000085a <vListInitialise>:
/*-----------------------------------------------------------
 * PUBLIC LIST API documented in list.h
 *----------------------------------------------------------*/

void vListInitialise( List_t * const pxList )
{
     85a:	fc 01       	movw	r30, r24
	/* The list structure contains a list item which is used to mark the
	end of the list.  To initialise the list the list end is inserted
	as the only list entry. */
	pxList->pxIndex = ( ListItem_t * ) &( pxList->xListEnd );			/*lint !e826 !e740 !e9087 The mini list structure is used as the list end to save RAM.  This is checked and valid. */
     85c:	03 96       	adiw	r24, 0x03	; 3
     85e:	92 83       	std	Z+2, r25	; 0x02
     860:	81 83       	std	Z+1, r24	; 0x01

	/* The list end value is the highest possible value in the list to
	ensure it remains at the end of the list. */
	pxList->xListEnd.xItemValue = portMAX_DELAY;
     862:	2f ef       	ldi	r18, 0xFF	; 255
     864:	3f ef       	ldi	r19, 0xFF	; 255
     866:	34 83       	std	Z+4, r19	; 0x04
     868:	23 83       	std	Z+3, r18	; 0x03

	/* The list end next and previous pointers point to itself so we know
	when the list is empty. */
	pxList->xListEnd.pxNext = ( ListItem_t * ) &( pxList->xListEnd );	/*lint !e826 !e740 !e9087 The mini list structure is used as the list end to save RAM.  This is checked and valid. */
     86a:	96 83       	std	Z+6, r25	; 0x06
     86c:	85 83       	std	Z+5, r24	; 0x05
	pxList->xListEnd.pxPrevious = ( ListItem_t * ) &( pxList->xListEnd );/*lint !e826 !e740 !e9087 The mini list structure is used as the list end to save RAM.  This is checked and valid. */
     86e:	90 87       	std	Z+8, r25	; 0x08
     870:	87 83       	std	Z+7, r24	; 0x07

	pxList->uxNumberOfItems = ( UBaseType_t ) 0U;
     872:	10 82       	st	Z, r1
     874:	08 95       	ret

00000876 <vListInitialiseItem>:
/*-----------------------------------------------------------*/

void vListInitialiseItem( ListItem_t * const pxItem )
{
	/* Make sure the list item is not recorded as being on a list. */
	pxItem->pxContainer = NULL;
     876:	fc 01       	movw	r30, r24
     878:	11 86       	std	Z+9, r1	; 0x09
     87a:	10 86       	std	Z+8, r1	; 0x08
     87c:	08 95       	ret

0000087e <vListInsertEnd>:
	listSET_SECOND_LIST_ITEM_INTEGRITY_CHECK_VALUE( pxItem );
}
/*-----------------------------------------------------------*/

void vListInsertEnd( List_t * const pxList, ListItem_t * const pxNewListItem )
{
     87e:	cf 93       	push	r28
     880:	df 93       	push	r29
     882:	9c 01       	movw	r18, r24
     884:	fb 01       	movw	r30, r22
ListItem_t * const pxIndex = pxList->pxIndex;
     886:	dc 01       	movw	r26, r24
     888:	11 96       	adiw	r26, 0x01	; 1
     88a:	cd 91       	ld	r28, X+
     88c:	dc 91       	ld	r29, X
     88e:	12 97       	sbiw	r26, 0x02	; 2
	listTEST_LIST_ITEM_INTEGRITY( pxNewListItem );

	/* Insert a new list item into pxList, but rather than sort the list,
	makes the new list item the last item to be removed by a call to
	listGET_OWNER_OF_NEXT_ENTRY(). */
	pxNewListItem->pxNext = pxIndex;
     890:	d3 83       	std	Z+3, r29	; 0x03
     892:	c2 83       	std	Z+2, r28	; 0x02
	pxNewListItem->pxPrevious = pxIndex->pxPrevious;
     894:	8c 81       	ldd	r24, Y+4	; 0x04
     896:	9d 81       	ldd	r25, Y+5	; 0x05
     898:	95 83       	std	Z+5, r25	; 0x05
     89a:	84 83       	std	Z+4, r24	; 0x04

	/* Only used during decision coverage testing. */
	mtCOVERAGE_TEST_DELAY();

	pxIndex->pxPrevious->pxNext = pxNewListItem;
     89c:	8c 81       	ldd	r24, Y+4	; 0x04
     89e:	9d 81       	ldd	r25, Y+5	; 0x05
     8a0:	dc 01       	movw	r26, r24
     8a2:	13 96       	adiw	r26, 0x03	; 3
     8a4:	7c 93       	st	X, r23
     8a6:	6e 93       	st	-X, r22
     8a8:	12 97       	sbiw	r26, 0x02	; 2
	pxIndex->pxPrevious = pxNewListItem;
     8aa:	7d 83       	std	Y+5, r23	; 0x05
     8ac:	6c 83       	std	Y+4, r22	; 0x04

	/* Remember which list the item is in. */
	pxNewListItem->pxContainer = pxList;
     8ae:	31 87       	std	Z+9, r19	; 0x09
     8b0:	20 87       	std	Z+8, r18	; 0x08

	( pxList->uxNumberOfItems )++;
     8b2:	f9 01       	movw	r30, r18
     8b4:	80 81       	ld	r24, Z
     8b6:	8f 5f       	subi	r24, 0xFF	; 255
     8b8:	80 83       	st	Z, r24
}
     8ba:	df 91       	pop	r29
     8bc:	cf 91       	pop	r28
     8be:	08 95       	ret

000008c0 <vListInsert>:
/*-----------------------------------------------------------*/

void vListInsert( List_t * const pxList, ListItem_t * const pxNewListItem )
{
     8c0:	cf 93       	push	r28
     8c2:	df 93       	push	r29
     8c4:	eb 01       	movw	r28, r22
ListItem_t *pxIterator;
const TickType_t xValueOfInsertion = pxNewListItem->xItemValue;
     8c6:	48 81       	ld	r20, Y
     8c8:	59 81       	ldd	r21, Y+1	; 0x01
	new list item should be placed after it.  This ensures that TCBs which are
	stored in ready lists (all of which have the same xItemValue value) get a
	share of the CPU.  However, if the xItemValue is the same as the back marker
	the iteration loop below will not end.  Therefore the value is checked
	first, and the algorithm slightly modified if necessary. */
	if( xValueOfInsertion == portMAX_DELAY )
     8ca:	4f 3f       	cpi	r20, 0xFF	; 255
     8cc:	2f ef       	ldi	r18, 0xFF	; 255
     8ce:	52 07       	cpc	r21, r18
     8d0:	21 f4       	brne	.+8      	; 0x8da <vListInsert+0x1a>
	{
		pxIterator = pxList->xListEnd.pxPrevious;
     8d2:	fc 01       	movw	r30, r24
     8d4:	a7 81       	ldd	r26, Z+7	; 0x07
     8d6:	b0 85       	ldd	r27, Z+8	; 0x08
     8d8:	0d c0       	rjmp	.+26     	; 0x8f4 <vListInsert+0x34>
			4) Using a queue or semaphore before it has been initialised or
			   before the scheduler has been started (are interrupts firing
			   before vTaskStartScheduler() has been called?).
		**********************************************************************/

		for( pxIterator = ( ListItem_t * ) &( pxList->xListEnd ); pxIterator->pxNext->xItemValue <= xValueOfInsertion; pxIterator = pxIterator->pxNext ) /*lint !e826 !e740 !e9087 The mini list structure is used as the list end to save RAM.  This is checked and valid. *//*lint !e440 The iterator moves to a different value, not xValueOfInsertion. */
     8da:	dc 01       	movw	r26, r24
     8dc:	13 96       	adiw	r26, 0x03	; 3
     8de:	01 c0       	rjmp	.+2      	; 0x8e2 <vListInsert+0x22>
     8e0:	df 01       	movw	r26, r30
     8e2:	12 96       	adiw	r26, 0x02	; 2
     8e4:	ed 91       	ld	r30, X+
     8e6:	fc 91       	ld	r31, X
     8e8:	13 97       	sbiw	r26, 0x03	; 3
     8ea:	20 81       	ld	r18, Z
     8ec:	31 81       	ldd	r19, Z+1	; 0x01
     8ee:	42 17       	cp	r20, r18
     8f0:	53 07       	cpc	r21, r19
     8f2:	b0 f7       	brcc	.-20     	; 0x8e0 <vListInsert+0x20>
			/* There is nothing to do here, just iterating to the wanted
			insertion position. */
		}
	}

	pxNewListItem->pxNext = pxIterator->pxNext;
     8f4:	12 96       	adiw	r26, 0x02	; 2
     8f6:	ed 91       	ld	r30, X+
     8f8:	fc 91       	ld	r31, X
     8fa:	13 97       	sbiw	r26, 0x03	; 3
     8fc:	fb 83       	std	Y+3, r31	; 0x03
     8fe:	ea 83       	std	Y+2, r30	; 0x02
	pxNewListItem->pxNext->pxPrevious = pxNewListItem;
     900:	d5 83       	std	Z+5, r29	; 0x05
     902:	c4 83       	std	Z+4, r28	; 0x04
	pxNewListItem->pxPrevious = pxIterator;
     904:	bd 83       	std	Y+5, r27	; 0x05
     906:	ac 83       	std	Y+4, r26	; 0x04
	pxIterator->pxNext = pxNewListItem;
     908:	13 96       	adiw	r26, 0x03	; 3
     90a:	dc 93       	st	X, r29
     90c:	ce 93       	st	-X, r28
     90e:	12 97       	sbiw	r26, 0x02	; 2

	/* Remember which list the item is in.  This allows fast removal of the
	item later. */
	pxNewListItem->pxContainer = pxList;
     910:	99 87       	std	Y+9, r25	; 0x09
     912:	88 87       	std	Y+8, r24	; 0x08

	( pxList->uxNumberOfItems )++;
     914:	fc 01       	movw	r30, r24
     916:	20 81       	ld	r18, Z
     918:	2f 5f       	subi	r18, 0xFF	; 255
     91a:	20 83       	st	Z, r18
}
     91c:	df 91       	pop	r29
     91e:	cf 91       	pop	r28
     920:	08 95       	ret

00000922 <uxListRemove>:
/*-----------------------------------------------------------*/

UBaseType_t uxListRemove( ListItem_t * const pxItemToRemove )
{
     922:	cf 93       	push	r28
     924:	df 93       	push	r29
     926:	fc 01       	movw	r30, r24
/* The list item knows which list it is in.  Obtain the list from the list
item. */
List_t * const pxList = pxItemToRemove->pxContainer;
     928:	a0 85       	ldd	r26, Z+8	; 0x08
     92a:	b1 85       	ldd	r27, Z+9	; 0x09

	pxItemToRemove->pxNext->pxPrevious = pxItemToRemove->pxPrevious;
     92c:	c2 81       	ldd	r28, Z+2	; 0x02
     92e:	d3 81       	ldd	r29, Z+3	; 0x03
     930:	84 81       	ldd	r24, Z+4	; 0x04
     932:	95 81       	ldd	r25, Z+5	; 0x05
     934:	9d 83       	std	Y+5, r25	; 0x05
     936:	8c 83       	std	Y+4, r24	; 0x04
	pxItemToRemove->pxPrevious->pxNext = pxItemToRemove->pxNext;
     938:	c4 81       	ldd	r28, Z+4	; 0x04
     93a:	d5 81       	ldd	r29, Z+5	; 0x05
     93c:	82 81       	ldd	r24, Z+2	; 0x02
     93e:	93 81       	ldd	r25, Z+3	; 0x03
     940:	9b 83       	std	Y+3, r25	; 0x03
     942:	8a 83       	std	Y+2, r24	; 0x02

	/* Only used during decision coverage testing. */
	mtCOVERAGE_TEST_DELAY();

	/* Make sure the index is left pointing to a valid item. */
	if( pxList->pxIndex == pxItemToRemove )
     944:	11 96       	adiw	r26, 0x01	; 1
     946:	8d 91       	ld	r24, X+
     948:	9c 91       	ld	r25, X
     94a:	12 97       	sbiw	r26, 0x02	; 2
     94c:	e8 17       	cp	r30, r24
     94e:	f9 07       	cpc	r31, r25
     950:	31 f4       	brne	.+12     	; 0x95e <uxListRemove+0x3c>
	{
		pxList->pxIndex = pxItemToRemove->pxPrevious;
     952:	84 81       	ldd	r24, Z+4	; 0x04
     954:	95 81       	ldd	r25, Z+5	; 0x05
     956:	12 96       	adiw	r26, 0x02	; 2
     958:	9c 93       	st	X, r25
     95a:	8e 93       	st	-X, r24
     95c:	11 97       	sbiw	r26, 0x01	; 1
	else
	{
		mtCOVERAGE_TEST_MARKER();
	}

	pxItemToRemove->pxContainer = NULL;
     95e:	11 86       	std	Z+9, r1	; 0x09
     960:	10 86       	std	Z+8, r1	; 0x08
	( pxList->uxNumberOfItems )--;
     962:	8c 91       	ld	r24, X
     964:	81 50       	subi	r24, 0x01	; 1
     966:	8c 93       	st	X, r24

	return pxList->uxNumberOfItems;
     968:	8c 91       	ld	r24, X
}
     96a:	df 91       	pop	r29
     96c:	cf 91       	pop	r28
     96e:	08 95       	ret

00000970 <pxPortInitialiseStack>:
	{
		vTaskSwitchContext();
	}
	portRESTORE_CONTEXT();

	asm volatile ( "ret" );
     970:	31 e1       	ldi	r19, 0x11	; 17
     972:	fc 01       	movw	r30, r24
     974:	30 83       	st	Z, r19
     976:	31 97       	sbiw	r30, 0x01	; 1
     978:	22 e2       	ldi	r18, 0x22	; 34
     97a:	20 83       	st	Z, r18
     97c:	31 97       	sbiw	r30, 0x01	; 1
     97e:	a3 e3       	ldi	r26, 0x33	; 51
     980:	a0 83       	st	Z, r26
     982:	31 97       	sbiw	r30, 0x01	; 1
     984:	60 83       	st	Z, r22
     986:	31 97       	sbiw	r30, 0x01	; 1
     988:	70 83       	st	Z, r23
     98a:	31 97       	sbiw	r30, 0x01	; 1
     98c:	10 82       	st	Z, r1
     98e:	31 97       	sbiw	r30, 0x01	; 1
     990:	60 e8       	ldi	r22, 0x80	; 128
     992:	60 83       	st	Z, r22
     994:	31 97       	sbiw	r30, 0x01	; 1
     996:	10 82       	st	Z, r1
     998:	31 97       	sbiw	r30, 0x01	; 1
     99a:	62 e0       	ldi	r22, 0x02	; 2
     99c:	60 83       	st	Z, r22
     99e:	31 97       	sbiw	r30, 0x01	; 1
     9a0:	63 e0       	ldi	r22, 0x03	; 3
     9a2:	60 83       	st	Z, r22
     9a4:	31 97       	sbiw	r30, 0x01	; 1
     9a6:	64 e0       	ldi	r22, 0x04	; 4
     9a8:	60 83       	st	Z, r22
     9aa:	31 97       	sbiw	r30, 0x01	; 1
     9ac:	65 e0       	ldi	r22, 0x05	; 5
     9ae:	60 83       	st	Z, r22
     9b0:	31 97       	sbiw	r30, 0x01	; 1
     9b2:	66 e0       	ldi	r22, 0x06	; 6
     9b4:	60 83       	st	Z, r22
     9b6:	31 97       	sbiw	r30, 0x01	; 1
     9b8:	67 e0       	ldi	r22, 0x07	; 7
     9ba:	60 83       	st	Z, r22
     9bc:	31 97       	sbiw	r30, 0x01	; 1
     9be:	68 e0       	ldi	r22, 0x08	; 8
     9c0:	60 83       	st	Z, r22
     9c2:	31 97       	sbiw	r30, 0x01	; 1
     9c4:	69 e0       	ldi	r22, 0x09	; 9
     9c6:	60 83       	st	Z, r22
     9c8:	31 97       	sbiw	r30, 0x01	; 1
     9ca:	60 e1       	ldi	r22, 0x10	; 16
     9cc:	60 83       	st	Z, r22
     9ce:	31 97       	sbiw	r30, 0x01	; 1
     9d0:	30 83       	st	Z, r19
     9d2:	31 97       	sbiw	r30, 0x01	; 1
     9d4:	32 e1       	ldi	r19, 0x12	; 18
     9d6:	30 83       	st	Z, r19
     9d8:	31 97       	sbiw	r30, 0x01	; 1
     9da:	33 e1       	ldi	r19, 0x13	; 19
     9dc:	30 83       	st	Z, r19
     9de:	31 97       	sbiw	r30, 0x01	; 1
     9e0:	34 e1       	ldi	r19, 0x14	; 20
     9e2:	30 83       	st	Z, r19
     9e4:	31 97       	sbiw	r30, 0x01	; 1
     9e6:	35 e1       	ldi	r19, 0x15	; 21
     9e8:	30 83       	st	Z, r19
     9ea:	31 97       	sbiw	r30, 0x01	; 1
     9ec:	36 e1       	ldi	r19, 0x16	; 22
     9ee:	30 83       	st	Z, r19
     9f0:	31 97       	sbiw	r30, 0x01	; 1
     9f2:	37 e1       	ldi	r19, 0x17	; 23
     9f4:	30 83       	st	Z, r19
     9f6:	31 97       	sbiw	r30, 0x01	; 1
     9f8:	38 e1       	ldi	r19, 0x18	; 24
     9fa:	30 83       	st	Z, r19
     9fc:	31 97       	sbiw	r30, 0x01	; 1
     9fe:	39 e1       	ldi	r19, 0x19	; 25
     a00:	30 83       	st	Z, r19
     a02:	31 97       	sbiw	r30, 0x01	; 1
     a04:	30 e2       	ldi	r19, 0x20	; 32
     a06:	30 83       	st	Z, r19
     a08:	31 97       	sbiw	r30, 0x01	; 1
     a0a:	31 e2       	ldi	r19, 0x21	; 33
     a0c:	30 83       	st	Z, r19
     a0e:	31 97       	sbiw	r30, 0x01	; 1
     a10:	20 83       	st	Z, r18
     a12:	31 97       	sbiw	r30, 0x01	; 1
     a14:	23 e2       	ldi	r18, 0x23	; 35
     a16:	20 83       	st	Z, r18
     a18:	31 97       	sbiw	r30, 0x01	; 1
     a1a:	40 83       	st	Z, r20
     a1c:	31 97       	sbiw	r30, 0x01	; 1
     a1e:	50 83       	st	Z, r21
     a20:	31 97       	sbiw	r30, 0x01	; 1
     a22:	26 e2       	ldi	r18, 0x26	; 38
     a24:	20 83       	st	Z, r18
     a26:	31 97       	sbiw	r30, 0x01	; 1
     a28:	27 e2       	ldi	r18, 0x27	; 39
     a2a:	20 83       	st	Z, r18
     a2c:	31 97       	sbiw	r30, 0x01	; 1
     a2e:	28 e2       	ldi	r18, 0x28	; 40
     a30:	20 83       	st	Z, r18
     a32:	31 97       	sbiw	r30, 0x01	; 1
     a34:	29 e2       	ldi	r18, 0x29	; 41
     a36:	20 83       	st	Z, r18
     a38:	31 97       	sbiw	r30, 0x01	; 1
     a3a:	20 e3       	ldi	r18, 0x30	; 48
     a3c:	20 83       	st	Z, r18
     a3e:	31 97       	sbiw	r30, 0x01	; 1
     a40:	21 e3       	ldi	r18, 0x31	; 49
     a42:	20 83       	st	Z, r18
     a44:	86 97       	sbiw	r24, 0x26	; 38
     a46:	08 95       	ret

00000a48 <xPortStartScheduler>:
     a48:	1b bc       	out	0x2b, r1	; 43
     a4a:	8c e7       	ldi	r24, 0x7C	; 124
     a4c:	8a bd       	out	0x2a, r24	; 42
     a4e:	8b e0       	ldi	r24, 0x0B	; 11
     a50:	8e bd       	out	0x2e, r24	; 46
     a52:	89 b7       	in	r24, 0x39	; 57
     a54:	80 61       	ori	r24, 0x10	; 16
     a56:	89 bf       	out	0x39, r24	; 57
     a58:	a0 91 25 07 	lds	r26, 0x0725	; 0x800725 <pxCurrentTCB>
     a5c:	b0 91 26 07 	lds	r27, 0x0726	; 0x800726 <pxCurrentTCB+0x1>
     a60:	cd 91       	ld	r28, X+
     a62:	cd bf       	out	0x3d, r28	; 61
     a64:	dd 91       	ld	r29, X+
     a66:	de bf       	out	0x3e, r29	; 62
     a68:	ff 91       	pop	r31
     a6a:	ef 91       	pop	r30
     a6c:	df 91       	pop	r29
     a6e:	cf 91       	pop	r28
     a70:	bf 91       	pop	r27
     a72:	af 91       	pop	r26
     a74:	9f 91       	pop	r25
     a76:	8f 91       	pop	r24
     a78:	7f 91       	pop	r23
     a7a:	6f 91       	pop	r22
     a7c:	5f 91       	pop	r21
     a7e:	4f 91       	pop	r20
     a80:	3f 91       	pop	r19
     a82:	2f 91       	pop	r18
     a84:	1f 91       	pop	r17
     a86:	0f 91       	pop	r16
     a88:	ff 90       	pop	r15
     a8a:	ef 90       	pop	r14
     a8c:	df 90       	pop	r13
     a8e:	cf 90       	pop	r12
     a90:	bf 90       	pop	r11
     a92:	af 90       	pop	r10
     a94:	9f 90       	pop	r9
     a96:	8f 90       	pop	r8
     a98:	7f 90       	pop	r7
     a9a:	6f 90       	pop	r6
     a9c:	5f 90       	pop	r5
     a9e:	4f 90       	pop	r4
     aa0:	3f 90       	pop	r3
     aa2:	2f 90       	pop	r2
     aa4:	1f 90       	pop	r1
     aa6:	0f 90       	pop	r0
     aa8:	0f be       	out	0x3f, r0	; 63
     aaa:	0f 90       	pop	r0
     aac:	08 95       	ret
     aae:	81 e0       	ldi	r24, 0x01	; 1
     ab0:	08 95       	ret

00000ab2 <vPortYield>:
     ab2:	0f 92       	push	r0
     ab4:	0f b6       	in	r0, 0x3f	; 63
     ab6:	f8 94       	cli
     ab8:	0f 92       	push	r0
     aba:	1f 92       	push	r1
     abc:	11 24       	eor	r1, r1
     abe:	2f 92       	push	r2
     ac0:	3f 92       	push	r3
     ac2:	4f 92       	push	r4
     ac4:	5f 92       	push	r5
     ac6:	6f 92       	push	r6
     ac8:	7f 92       	push	r7
     aca:	8f 92       	push	r8
     acc:	9f 92       	push	r9
     ace:	af 92       	push	r10
     ad0:	bf 92       	push	r11
     ad2:	cf 92       	push	r12
     ad4:	df 92       	push	r13
     ad6:	ef 92       	push	r14
     ad8:	ff 92       	push	r15
     ada:	0f 93       	push	r16
     adc:	1f 93       	push	r17
     ade:	2f 93       	push	r18
     ae0:	3f 93       	push	r19
     ae2:	4f 93       	push	r20
     ae4:	5f 93       	push	r21
     ae6:	6f 93       	push	r22
     ae8:	7f 93       	push	r23
     aea:	8f 93       	push	r24
     aec:	9f 93       	push	r25
     aee:	af 93       	push	r26
     af0:	bf 93       	push	r27
     af2:	cf 93       	push	r28
     af4:	df 93       	push	r29
     af6:	ef 93       	push	r30
     af8:	ff 93       	push	r31
     afa:	a0 91 25 07 	lds	r26, 0x0725	; 0x800725 <pxCurrentTCB>
     afe:	b0 91 26 07 	lds	r27, 0x0726	; 0x800726 <pxCurrentTCB+0x1>
     b02:	0d b6       	in	r0, 0x3d	; 61
     b04:	0d 92       	st	X+, r0
     b06:	0e b6       	in	r0, 0x3e	; 62
     b08:	0d 92       	st	X+, r0
     b0a:	0e 94 73 0b 	call	0x16e6	; 0x16e6 <vTaskSwitchContext>
     b0e:	a0 91 25 07 	lds	r26, 0x0725	; 0x800725 <pxCurrentTCB>
     b12:	b0 91 26 07 	lds	r27, 0x0726	; 0x800726 <pxCurrentTCB+0x1>
     b16:	cd 91       	ld	r28, X+
     b18:	cd bf       	out	0x3d, r28	; 61
     b1a:	dd 91       	ld	r29, X+
     b1c:	de bf       	out	0x3e, r29	; 62
     b1e:	ff 91       	pop	r31
     b20:	ef 91       	pop	r30
     b22:	df 91       	pop	r29
     b24:	cf 91       	pop	r28
     b26:	bf 91       	pop	r27
     b28:	af 91       	pop	r26
     b2a:	9f 91       	pop	r25
     b2c:	8f 91       	pop	r24
     b2e:	7f 91       	pop	r23
     b30:	6f 91       	pop	r22
     b32:	5f 91       	pop	r21
     b34:	4f 91       	pop	r20
     b36:	3f 91       	pop	r19
     b38:	2f 91       	pop	r18
     b3a:	1f 91       	pop	r17
     b3c:	0f 91       	pop	r16
     b3e:	ff 90       	pop	r15
     b40:	ef 90       	pop	r14
     b42:	df 90       	pop	r13
     b44:	cf 90       	pop	r12
     b46:	bf 90       	pop	r11
     b48:	af 90       	pop	r10
     b4a:	9f 90       	pop	r9
     b4c:	8f 90       	pop	r8
     b4e:	7f 90       	pop	r7
     b50:	6f 90       	pop	r6
     b52:	5f 90       	pop	r5
     b54:	4f 90       	pop	r4
     b56:	3f 90       	pop	r3
     b58:	2f 90       	pop	r2
     b5a:	1f 90       	pop	r1
     b5c:	0f 90       	pop	r0
     b5e:	0f be       	out	0x3f, r0	; 63
     b60:	0f 90       	pop	r0
     b62:	08 95       	ret

00000b64 <__vector_7>:
	 * tick count.  We don't need to switch context, this can only be done by
	 * manual calls to taskYIELD();
	 */
	void TIMER1_COMPA_vect( void ) __attribute__ ( ( signal ) );
	void TIMER1_COMPA_vect( void )
	{
     b64:	1f 92       	push	r1
     b66:	0f 92       	push	r0
     b68:	0f b6       	in	r0, 0x3f	; 63
     b6a:	0f 92       	push	r0
     b6c:	11 24       	eor	r1, r1
     b6e:	2f 93       	push	r18
     b70:	3f 93       	push	r19
     b72:	4f 93       	push	r20
     b74:	5f 93       	push	r21
     b76:	6f 93       	push	r22
     b78:	7f 93       	push	r23
     b7a:	8f 93       	push	r24
     b7c:	9f 93       	push	r25
     b7e:	af 93       	push	r26
     b80:	bf 93       	push	r27
     b82:	ef 93       	push	r30
     b84:	ff 93       	push	r31
		xTaskIncrementTick();
     b86:	0e 94 3f 0a 	call	0x147e	; 0x147e <xTaskIncrementTick>
	}
     b8a:	ff 91       	pop	r31
     b8c:	ef 91       	pop	r30
     b8e:	bf 91       	pop	r27
     b90:	af 91       	pop	r26
     b92:	9f 91       	pop	r25
     b94:	8f 91       	pop	r24
     b96:	7f 91       	pop	r23
     b98:	6f 91       	pop	r22
     b9a:	5f 91       	pop	r21
     b9c:	4f 91       	pop	r20
     b9e:	3f 91       	pop	r19
     ba0:	2f 91       	pop	r18
     ba2:	0f 90       	pop	r0
     ba4:	0f be       	out	0x3f, r0	; 63
     ba6:	0f 90       	pop	r0
     ba8:	1f 90       	pop	r1
     baa:	18 95       	reti

00000bac <prvIsQueueEmpty>:
		}
	}
	portCLEAR_INTERRUPT_MASK_FROM_ISR( uxSavedInterruptStatus );

	return xReturn;
}
     bac:	0f b6       	in	r0, 0x3f	; 63
     bae:	f8 94       	cli
     bb0:	0f 92       	push	r0
     bb2:	fc 01       	movw	r30, r24
     bb4:	92 8d       	ldd	r25, Z+26	; 0x1a
     bb6:	0f 90       	pop	r0
     bb8:	0f be       	out	0x3f, r0	; 63
     bba:	81 e0       	ldi	r24, 0x01	; 1
     bbc:	91 11       	cpse	r25, r1
     bbe:	80 e0       	ldi	r24, 0x00	; 0
     bc0:	08 95       	ret

00000bc2 <prvCopyDataToQueue>:
     bc2:	0f 93       	push	r16
     bc4:	1f 93       	push	r17
     bc6:	cf 93       	push	r28
     bc8:	df 93       	push	r29
     bca:	ec 01       	movw	r28, r24
     bcc:	04 2f       	mov	r16, r20
     bce:	1a 8d       	ldd	r17, Y+26	; 0x1a
     bd0:	4c 8d       	ldd	r20, Y+28	; 0x1c
     bd2:	41 11       	cpse	r20, r1
     bd4:	0c c0       	rjmp	.+24     	; 0xbee <prvCopyDataToQueue+0x2c>
     bd6:	88 81       	ld	r24, Y
     bd8:	99 81       	ldd	r25, Y+1	; 0x01
     bda:	89 2b       	or	r24, r25
     bdc:	09 f0       	breq	.+2      	; 0xbe0 <prvCopyDataToQueue+0x1e>
     bde:	42 c0       	rjmp	.+132    	; 0xc64 <prvCopyDataToQueue+0xa2>
     be0:	8c 81       	ldd	r24, Y+4	; 0x04
     be2:	9d 81       	ldd	r25, Y+5	; 0x05
     be4:	0e 94 ca 0c 	call	0x1994	; 0x1994 <xTaskPriorityDisinherit>
     be8:	1d 82       	std	Y+5, r1	; 0x05
     bea:	1c 82       	std	Y+4, r1	; 0x04
     bec:	42 c0       	rjmp	.+132    	; 0xc72 <prvCopyDataToQueue+0xb0>
     bee:	01 11       	cpse	r16, r1
     bf0:	17 c0       	rjmp	.+46     	; 0xc20 <prvCopyDataToQueue+0x5e>
     bf2:	50 e0       	ldi	r21, 0x00	; 0
     bf4:	8a 81       	ldd	r24, Y+2	; 0x02
     bf6:	9b 81       	ldd	r25, Y+3	; 0x03
     bf8:	0e 94 27 0e 	call	0x1c4e	; 0x1c4e <memcpy>
     bfc:	2c 8d       	ldd	r18, Y+28	; 0x1c
     bfe:	8a 81       	ldd	r24, Y+2	; 0x02
     c00:	9b 81       	ldd	r25, Y+3	; 0x03
     c02:	82 0f       	add	r24, r18
     c04:	91 1d       	adc	r25, r1
     c06:	9b 83       	std	Y+3, r25	; 0x03
     c08:	8a 83       	std	Y+2, r24	; 0x02
     c0a:	2c 81       	ldd	r18, Y+4	; 0x04
     c0c:	3d 81       	ldd	r19, Y+5	; 0x05
     c0e:	82 17       	cp	r24, r18
     c10:	93 07       	cpc	r25, r19
     c12:	50 f1       	brcs	.+84     	; 0xc68 <prvCopyDataToQueue+0xa6>
     c14:	88 81       	ld	r24, Y
     c16:	99 81       	ldd	r25, Y+1	; 0x01
     c18:	9b 83       	std	Y+3, r25	; 0x03
     c1a:	8a 83       	std	Y+2, r24	; 0x02
     c1c:	80 e0       	ldi	r24, 0x00	; 0
     c1e:	29 c0       	rjmp	.+82     	; 0xc72 <prvCopyDataToQueue+0xb0>
     c20:	50 e0       	ldi	r21, 0x00	; 0
     c22:	8e 81       	ldd	r24, Y+6	; 0x06
     c24:	9f 81       	ldd	r25, Y+7	; 0x07
     c26:	0e 94 27 0e 	call	0x1c4e	; 0x1c4e <memcpy>
     c2a:	8c 8d       	ldd	r24, Y+28	; 0x1c
     c2c:	90 e0       	ldi	r25, 0x00	; 0
     c2e:	91 95       	neg	r25
     c30:	81 95       	neg	r24
     c32:	91 09       	sbc	r25, r1
     c34:	2e 81       	ldd	r18, Y+6	; 0x06
     c36:	3f 81       	ldd	r19, Y+7	; 0x07
     c38:	28 0f       	add	r18, r24
     c3a:	39 1f       	adc	r19, r25
     c3c:	3f 83       	std	Y+7, r19	; 0x07
     c3e:	2e 83       	std	Y+6, r18	; 0x06
     c40:	48 81       	ld	r20, Y
     c42:	59 81       	ldd	r21, Y+1	; 0x01
     c44:	24 17       	cp	r18, r20
     c46:	35 07       	cpc	r19, r21
     c48:	30 f4       	brcc	.+12     	; 0xc56 <prvCopyDataToQueue+0x94>
     c4a:	2c 81       	ldd	r18, Y+4	; 0x04
     c4c:	3d 81       	ldd	r19, Y+5	; 0x05
     c4e:	82 0f       	add	r24, r18
     c50:	93 1f       	adc	r25, r19
     c52:	9f 83       	std	Y+7, r25	; 0x07
     c54:	8e 83       	std	Y+6, r24	; 0x06
     c56:	02 30       	cpi	r16, 0x02	; 2
     c58:	49 f4       	brne	.+18     	; 0xc6c <prvCopyDataToQueue+0xaa>
     c5a:	11 23       	and	r17, r17
     c5c:	49 f0       	breq	.+18     	; 0xc70 <prvCopyDataToQueue+0xae>
     c5e:	11 50       	subi	r17, 0x01	; 1
     c60:	80 e0       	ldi	r24, 0x00	; 0
     c62:	07 c0       	rjmp	.+14     	; 0xc72 <prvCopyDataToQueue+0xb0>
     c64:	80 e0       	ldi	r24, 0x00	; 0
     c66:	05 c0       	rjmp	.+10     	; 0xc72 <prvCopyDataToQueue+0xb0>
     c68:	80 e0       	ldi	r24, 0x00	; 0
     c6a:	03 c0       	rjmp	.+6      	; 0xc72 <prvCopyDataToQueue+0xb0>
     c6c:	80 e0       	ldi	r24, 0x00	; 0
     c6e:	01 c0       	rjmp	.+2      	; 0xc72 <prvCopyDataToQueue+0xb0>
     c70:	80 e0       	ldi	r24, 0x00	; 0
     c72:	1f 5f       	subi	r17, 0xFF	; 255
     c74:	1a 8f       	std	Y+26, r17	; 0x1a
     c76:	df 91       	pop	r29
     c78:	cf 91       	pop	r28
     c7a:	1f 91       	pop	r17
     c7c:	0f 91       	pop	r16
     c7e:	08 95       	ret

00000c80 <prvCopyDataFromQueue>:
     c80:	fc 01       	movw	r30, r24
     c82:	44 8d       	ldd	r20, Z+28	; 0x1c
     c84:	44 23       	and	r20, r20
     c86:	a9 f0       	breq	.+42     	; 0xcb2 <prvCopyDataFromQueue+0x32>
     c88:	50 e0       	ldi	r21, 0x00	; 0
     c8a:	26 81       	ldd	r18, Z+6	; 0x06
     c8c:	37 81       	ldd	r19, Z+7	; 0x07
     c8e:	24 0f       	add	r18, r20
     c90:	35 1f       	adc	r19, r21
     c92:	37 83       	std	Z+7, r19	; 0x07
     c94:	26 83       	std	Z+6, r18	; 0x06
     c96:	84 81       	ldd	r24, Z+4	; 0x04
     c98:	95 81       	ldd	r25, Z+5	; 0x05
     c9a:	28 17       	cp	r18, r24
     c9c:	39 07       	cpc	r19, r25
     c9e:	20 f0       	brcs	.+8      	; 0xca8 <prvCopyDataFromQueue+0x28>
     ca0:	80 81       	ld	r24, Z
     ca2:	91 81       	ldd	r25, Z+1	; 0x01
     ca4:	97 83       	std	Z+7, r25	; 0x07
     ca6:	86 83       	std	Z+6, r24	; 0x06
     ca8:	cb 01       	movw	r24, r22
     caa:	66 81       	ldd	r22, Z+6	; 0x06
     cac:	77 81       	ldd	r23, Z+7	; 0x07
     cae:	0e 94 27 0e 	call	0x1c4e	; 0x1c4e <memcpy>
     cb2:	08 95       	ret

00000cb4 <prvUnlockQueue>:
     cb4:	ef 92       	push	r14
     cb6:	ff 92       	push	r15
     cb8:	0f 93       	push	r16
     cba:	1f 93       	push	r17
     cbc:	cf 93       	push	r28
     cbe:	8c 01       	movw	r16, r24
     cc0:	0f b6       	in	r0, 0x3f	; 63
     cc2:	f8 94       	cli
     cc4:	0f 92       	push	r0
     cc6:	fc 01       	movw	r30, r24
     cc8:	c6 8d       	ldd	r28, Z+30	; 0x1e
     cca:	1c 16       	cp	r1, r28
     ccc:	ac f4       	brge	.+42     	; 0xcf8 <prvUnlockQueue+0x44>
     cce:	81 89       	ldd	r24, Z+17	; 0x11
     cd0:	81 11       	cpse	r24, r1
     cd2:	06 c0       	rjmp	.+12     	; 0xce0 <prvUnlockQueue+0x2c>
     cd4:	11 c0       	rjmp	.+34     	; 0xcf8 <prvUnlockQueue+0x44>
     cd6:	f8 01       	movw	r30, r16
     cd8:	81 89       	ldd	r24, Z+17	; 0x11
     cda:	81 11       	cpse	r24, r1
     cdc:	05 c0       	rjmp	.+10     	; 0xce8 <prvUnlockQueue+0x34>
     cde:	0c c0       	rjmp	.+24     	; 0xcf8 <prvUnlockQueue+0x44>
     ce0:	78 01       	movw	r14, r16
     ce2:	f1 e1       	ldi	r31, 0x11	; 17
     ce4:	ef 0e       	add	r14, r31
     ce6:	f1 1c       	adc	r15, r1
     ce8:	c7 01       	movw	r24, r14
     cea:	0e 94 3d 0c 	call	0x187a	; 0x187a <xTaskRemoveFromEventList>
     cee:	81 11       	cpse	r24, r1
     cf0:	0e 94 c6 0c 	call	0x198c	; 0x198c <vTaskMissedYield>
     cf4:	c1 50       	subi	r28, 0x01	; 1
     cf6:	79 f7       	brne	.-34     	; 0xcd6 <prvUnlockQueue+0x22>
     cf8:	8f ef       	ldi	r24, 0xFF	; 255
     cfa:	f8 01       	movw	r30, r16
     cfc:	86 8f       	std	Z+30, r24	; 0x1e
     cfe:	0f 90       	pop	r0
     d00:	0f be       	out	0x3f, r0	; 63
     d02:	0f b6       	in	r0, 0x3f	; 63
     d04:	f8 94       	cli
     d06:	0f 92       	push	r0
     d08:	c5 8d       	ldd	r28, Z+29	; 0x1d
     d0a:	1c 16       	cp	r1, r28
     d0c:	ac f4       	brge	.+42     	; 0xd38 <prvUnlockQueue+0x84>
     d0e:	80 85       	ldd	r24, Z+8	; 0x08
     d10:	81 11       	cpse	r24, r1
     d12:	06 c0       	rjmp	.+12     	; 0xd20 <prvUnlockQueue+0x6c>
     d14:	11 c0       	rjmp	.+34     	; 0xd38 <prvUnlockQueue+0x84>
     d16:	f8 01       	movw	r30, r16
     d18:	80 85       	ldd	r24, Z+8	; 0x08
     d1a:	81 11       	cpse	r24, r1
     d1c:	05 c0       	rjmp	.+10     	; 0xd28 <prvUnlockQueue+0x74>
     d1e:	0c c0       	rjmp	.+24     	; 0xd38 <prvUnlockQueue+0x84>
     d20:	78 01       	movw	r14, r16
     d22:	f8 e0       	ldi	r31, 0x08	; 8
     d24:	ef 0e       	add	r14, r31
     d26:	f1 1c       	adc	r15, r1
     d28:	c7 01       	movw	r24, r14
     d2a:	0e 94 3d 0c 	call	0x187a	; 0x187a <xTaskRemoveFromEventList>
     d2e:	81 11       	cpse	r24, r1
     d30:	0e 94 c6 0c 	call	0x198c	; 0x198c <vTaskMissedYield>
     d34:	c1 50       	subi	r28, 0x01	; 1
     d36:	79 f7       	brne	.-34     	; 0xd16 <prvUnlockQueue+0x62>
     d38:	8f ef       	ldi	r24, 0xFF	; 255
     d3a:	f8 01       	movw	r30, r16
     d3c:	85 8f       	std	Z+29, r24	; 0x1d
     d3e:	0f 90       	pop	r0
     d40:	0f be       	out	0x3f, r0	; 63
     d42:	cf 91       	pop	r28
     d44:	1f 91       	pop	r17
     d46:	0f 91       	pop	r16
     d48:	ff 90       	pop	r15
     d4a:	ef 90       	pop	r14
     d4c:	08 95       	ret

00000d4e <xQueueGenericReset>:
     d4e:	cf 93       	push	r28
     d50:	df 93       	push	r29
     d52:	ec 01       	movw	r28, r24
     d54:	0f b6       	in	r0, 0x3f	; 63
     d56:	f8 94       	cli
     d58:	0f 92       	push	r0
     d5a:	e8 81       	ld	r30, Y
     d5c:	f9 81       	ldd	r31, Y+1	; 0x01
     d5e:	8b 8d       	ldd	r24, Y+27	; 0x1b
     d60:	2c 8d       	ldd	r18, Y+28	; 0x1c
     d62:	90 e0       	ldi	r25, 0x00	; 0
     d64:	30 e0       	ldi	r19, 0x00	; 0
     d66:	82 9f       	mul	r24, r18
     d68:	a0 01       	movw	r20, r0
     d6a:	83 9f       	mul	r24, r19
     d6c:	50 0d       	add	r21, r0
     d6e:	92 9f       	mul	r25, r18
     d70:	50 0d       	add	r21, r0
     d72:	11 24       	eor	r1, r1
     d74:	4e 0f       	add	r20, r30
     d76:	5f 1f       	adc	r21, r31
     d78:	5d 83       	std	Y+5, r21	; 0x05
     d7a:	4c 83       	std	Y+4, r20	; 0x04
     d7c:	1a 8e       	std	Y+26, r1	; 0x1a
     d7e:	fb 83       	std	Y+3, r31	; 0x03
     d80:	ea 83       	std	Y+2, r30	; 0x02
     d82:	01 97       	sbiw	r24, 0x01	; 1
     d84:	82 9f       	mul	r24, r18
     d86:	a0 01       	movw	r20, r0
     d88:	83 9f       	mul	r24, r19
     d8a:	50 0d       	add	r21, r0
     d8c:	92 9f       	mul	r25, r18
     d8e:	50 0d       	add	r21, r0
     d90:	11 24       	eor	r1, r1
     d92:	cf 01       	movw	r24, r30
     d94:	84 0f       	add	r24, r20
     d96:	95 1f       	adc	r25, r21
     d98:	9f 83       	std	Y+7, r25	; 0x07
     d9a:	8e 83       	std	Y+6, r24	; 0x06
     d9c:	8f ef       	ldi	r24, 0xFF	; 255
     d9e:	8d 8f       	std	Y+29, r24	; 0x1d
     da0:	8e 8f       	std	Y+30, r24	; 0x1e
     da2:	61 11       	cpse	r22, r1
     da4:	08 c0       	rjmp	.+16     	; 0xdb6 <xQueueGenericReset+0x68>
     da6:	88 85       	ldd	r24, Y+8	; 0x08
     da8:	88 23       	and	r24, r24
     daa:	69 f0       	breq	.+26     	; 0xdc6 <xQueueGenericReset+0x78>
     dac:	ce 01       	movw	r24, r28
     dae:	08 96       	adiw	r24, 0x08	; 8
     db0:	0e 94 3d 0c 	call	0x187a	; 0x187a <xTaskRemoveFromEventList>
     db4:	08 c0       	rjmp	.+16     	; 0xdc6 <xQueueGenericReset+0x78>
     db6:	ce 01       	movw	r24, r28
     db8:	08 96       	adiw	r24, 0x08	; 8
     dba:	0e 94 2d 04 	call	0x85a	; 0x85a <vListInitialise>
     dbe:	ce 01       	movw	r24, r28
     dc0:	41 96       	adiw	r24, 0x11	; 17
     dc2:	0e 94 2d 04 	call	0x85a	; 0x85a <vListInitialise>
     dc6:	0f 90       	pop	r0
     dc8:	0f be       	out	0x3f, r0	; 63
     dca:	81 e0       	ldi	r24, 0x01	; 1
     dcc:	df 91       	pop	r29
     dce:	cf 91       	pop	r28
     dd0:	08 95       	ret

00000dd2 <xQueueGenericCreate>:
     dd2:	0f 93       	push	r16
     dd4:	1f 93       	push	r17
     dd6:	cf 93       	push	r28
     dd8:	df 93       	push	r29
     dda:	08 2f       	mov	r16, r24
     ddc:	16 2f       	mov	r17, r22
     dde:	66 23       	and	r22, r22
     de0:	c1 f0       	breq	.+48     	; 0xe12 <xQueueGenericCreate+0x40>
     de2:	86 9f       	mul	r24, r22
     de4:	c0 01       	movw	r24, r0
     de6:	11 24       	eor	r1, r1
     de8:	4f 96       	adiw	r24, 0x1f	; 31
     dea:	0e 94 f7 03 	call	0x7ee	; 0x7ee <pvPortMalloc>
     dee:	ec 01       	movw	r28, r24
     df0:	00 97       	sbiw	r24, 0x00	; 0
     df2:	41 f4       	brne	.+16     	; 0xe04 <xQueueGenericCreate+0x32>
     df4:	15 c0       	rjmp	.+42     	; 0xe20 <xQueueGenericCreate+0x4e>
     df6:	0b 8f       	std	Y+27, r16	; 0x1b
     df8:	1c 8f       	std	Y+28, r17	; 0x1c
     dfa:	61 e0       	ldi	r22, 0x01	; 1
     dfc:	ce 01       	movw	r24, r28
     dfe:	0e 94 a7 06 	call	0xd4e	; 0xd4e <xQueueGenericReset>
     e02:	0e c0       	rjmp	.+28     	; 0xe20 <xQueueGenericCreate+0x4e>
     e04:	4f 96       	adiw	r24, 0x1f	; 31
     e06:	99 83       	std	Y+1, r25	; 0x01
     e08:	88 83       	st	Y, r24
     e0a:	f5 cf       	rjmp	.-22     	; 0xdf6 <xQueueGenericCreate+0x24>
     e0c:	d9 83       	std	Y+1, r29	; 0x01
     e0e:	c8 83       	st	Y, r28
     e10:	f2 cf       	rjmp	.-28     	; 0xdf6 <xQueueGenericCreate+0x24>
     e12:	8f e1       	ldi	r24, 0x1F	; 31
     e14:	90 e0       	ldi	r25, 0x00	; 0
     e16:	0e 94 f7 03 	call	0x7ee	; 0x7ee <pvPortMalloc>
     e1a:	ec 01       	movw	r28, r24
     e1c:	89 2b       	or	r24, r25
     e1e:	b1 f7       	brne	.-20     	; 0xe0c <xQueueGenericCreate+0x3a>
     e20:	ce 01       	movw	r24, r28
     e22:	df 91       	pop	r29
     e24:	cf 91       	pop	r28
     e26:	1f 91       	pop	r17
     e28:	0f 91       	pop	r16
     e2a:	08 95       	ret

00000e2c <xQueueGenericSend>:
     e2c:	9f 92       	push	r9
     e2e:	af 92       	push	r10
     e30:	bf 92       	push	r11
     e32:	cf 92       	push	r12
     e34:	df 92       	push	r13
     e36:	ef 92       	push	r14
     e38:	ff 92       	push	r15
     e3a:	0f 93       	push	r16
     e3c:	1f 93       	push	r17
     e3e:	cf 93       	push	r28
     e40:	df 93       	push	r29
     e42:	00 d0       	rcall	.+0      	; 0xe44 <xQueueGenericSend+0x18>
     e44:	00 d0       	rcall	.+0      	; 0xe46 <xQueueGenericSend+0x1a>
     e46:	1f 92       	push	r1
     e48:	cd b7       	in	r28, 0x3d	; 61
     e4a:	de b7       	in	r29, 0x3e	; 62
     e4c:	8c 01       	movw	r16, r24
     e4e:	6b 01       	movw	r12, r22
     e50:	5d 83       	std	Y+5, r21	; 0x05
     e52:	4c 83       	std	Y+4, r20	; 0x04
     e54:	a2 2e       	mov	r10, r18
     e56:	b1 2c       	mov	r11, r1
     e58:	99 24       	eor	r9, r9
     e5a:	93 94       	inc	r9
     e5c:	7c 01       	movw	r14, r24
     e5e:	88 e0       	ldi	r24, 0x08	; 8
     e60:	e8 0e       	add	r14, r24
     e62:	f1 1c       	adc	r15, r1
     e64:	0f b6       	in	r0, 0x3f	; 63
     e66:	f8 94       	cli
     e68:	0f 92       	push	r0
     e6a:	f8 01       	movw	r30, r16
     e6c:	92 8d       	ldd	r25, Z+26	; 0x1a
     e6e:	83 8d       	ldd	r24, Z+27	; 0x1b
     e70:	98 17       	cp	r25, r24
     e72:	18 f0       	brcs	.+6      	; 0xe7a <xQueueGenericSend+0x4e>
     e74:	f2 e0       	ldi	r31, 0x02	; 2
     e76:	af 12       	cpse	r10, r31
     e78:	11 c0       	rjmp	.+34     	; 0xe9c <xQueueGenericSend+0x70>
     e7a:	4a 2d       	mov	r20, r10
     e7c:	b6 01       	movw	r22, r12
     e7e:	c8 01       	movw	r24, r16
     e80:	0e 94 e1 05 	call	0xbc2	; 0xbc2 <prvCopyDataToQueue>
     e84:	f8 01       	movw	r30, r16
     e86:	81 89       	ldd	r24, Z+17	; 0x11
     e88:	88 23       	and	r24, r24
     e8a:	21 f0       	breq	.+8      	; 0xe94 <xQueueGenericSend+0x68>
     e8c:	c8 01       	movw	r24, r16
     e8e:	41 96       	adiw	r24, 0x11	; 17
     e90:	0e 94 3d 0c 	call	0x187a	; 0x187a <xTaskRemoveFromEventList>
     e94:	0f 90       	pop	r0
     e96:	0f be       	out	0x3f, r0	; 63
     e98:	81 e0       	ldi	r24, 0x01	; 1
     e9a:	50 c0       	rjmp	.+160    	; 0xf3c <xQueueGenericSend+0x110>
     e9c:	8c 81       	ldd	r24, Y+4	; 0x04
     e9e:	9d 81       	ldd	r25, Y+5	; 0x05
     ea0:	89 2b       	or	r24, r25
     ea2:	21 f4       	brne	.+8      	; 0xeac <xQueueGenericSend+0x80>
     ea4:	0f 90       	pop	r0
     ea6:	0f be       	out	0x3f, r0	; 63
     ea8:	80 e0       	ldi	r24, 0x00	; 0
     eaa:	48 c0       	rjmp	.+144    	; 0xf3c <xQueueGenericSend+0x110>
     eac:	b1 10       	cpse	r11, r1
     eae:	05 c0       	rjmp	.+10     	; 0xeba <xQueueGenericSend+0x8e>
     eb0:	ce 01       	movw	r24, r28
     eb2:	01 96       	adiw	r24, 0x01	; 1
     eb4:	0e 94 85 0c 	call	0x190a	; 0x190a <vTaskInternalSetTimeOutState>
     eb8:	b9 2c       	mov	r11, r9
     eba:	0f 90       	pop	r0
     ebc:	0f be       	out	0x3f, r0	; 63
     ebe:	0e 94 39 0a 	call	0x1472	; 0x1472 <vTaskSuspendAll>
     ec2:	0f b6       	in	r0, 0x3f	; 63
     ec4:	f8 94       	cli
     ec6:	0f 92       	push	r0
     ec8:	f8 01       	movw	r30, r16
     eca:	85 8d       	ldd	r24, Z+29	; 0x1d
     ecc:	8f 3f       	cpi	r24, 0xFF	; 255
     ece:	09 f4       	brne	.+2      	; 0xed2 <xQueueGenericSend+0xa6>
     ed0:	15 8e       	std	Z+29, r1	; 0x1d
     ed2:	f8 01       	movw	r30, r16
     ed4:	86 8d       	ldd	r24, Z+30	; 0x1e
     ed6:	8f 3f       	cpi	r24, 0xFF	; 255
     ed8:	09 f4       	brne	.+2      	; 0xedc <xQueueGenericSend+0xb0>
     eda:	16 8e       	std	Z+30, r1	; 0x1e
     edc:	0f 90       	pop	r0
     ede:	0f be       	out	0x3f, r0	; 63
     ee0:	be 01       	movw	r22, r28
     ee2:	6c 5f       	subi	r22, 0xFC	; 252
     ee4:	7f 4f       	sbci	r23, 0xFF	; 255
     ee6:	ce 01       	movw	r24, r28
     ee8:	01 96       	adiw	r24, 0x01	; 1
     eea:	0e 94 90 0c 	call	0x1920	; 0x1920 <xTaskCheckForTimeOut>
     eee:	81 11       	cpse	r24, r1
     ef0:	1f c0       	rjmp	.+62     	; 0xf30 <xQueueGenericSend+0x104>
     ef2:	0f b6       	in	r0, 0x3f	; 63
     ef4:	f8 94       	cli
     ef6:	0f 92       	push	r0
     ef8:	f8 01       	movw	r30, r16
     efa:	92 8d       	ldd	r25, Z+26	; 0x1a
     efc:	0f 90       	pop	r0
     efe:	0f be       	out	0x3f, r0	; 63
     f00:	83 8d       	ldd	r24, Z+27	; 0x1b
     f02:	98 13       	cpse	r25, r24
     f04:	0f c0       	rjmp	.+30     	; 0xf24 <xQueueGenericSend+0xf8>
     f06:	6c 81       	ldd	r22, Y+4	; 0x04
     f08:	7d 81       	ldd	r23, Y+5	; 0x05
     f0a:	c7 01       	movw	r24, r14
     f0c:	0e 94 2b 0c 	call	0x1856	; 0x1856 <vTaskPlaceOnEventList>
     f10:	c8 01       	movw	r24, r16
     f12:	0e 94 5a 06 	call	0xcb4	; 0xcb4 <prvUnlockQueue>
     f16:	0e 94 e8 0a 	call	0x15d0	; 0x15d0 <xTaskResumeAll>
     f1a:	81 11       	cpse	r24, r1
     f1c:	a3 cf       	rjmp	.-186    	; 0xe64 <xQueueGenericSend+0x38>
     f1e:	0e 94 59 05 	call	0xab2	; 0xab2 <vPortYield>
     f22:	a0 cf       	rjmp	.-192    	; 0xe64 <xQueueGenericSend+0x38>
     f24:	c8 01       	movw	r24, r16
     f26:	0e 94 5a 06 	call	0xcb4	; 0xcb4 <prvUnlockQueue>
     f2a:	0e 94 e8 0a 	call	0x15d0	; 0x15d0 <xTaskResumeAll>
     f2e:	9a cf       	rjmp	.-204    	; 0xe64 <xQueueGenericSend+0x38>
     f30:	c8 01       	movw	r24, r16
     f32:	0e 94 5a 06 	call	0xcb4	; 0xcb4 <prvUnlockQueue>
     f36:	0e 94 e8 0a 	call	0x15d0	; 0x15d0 <xTaskResumeAll>
     f3a:	80 e0       	ldi	r24, 0x00	; 0
     f3c:	0f 90       	pop	r0
     f3e:	0f 90       	pop	r0
     f40:	0f 90       	pop	r0
     f42:	0f 90       	pop	r0
     f44:	0f 90       	pop	r0
     f46:	df 91       	pop	r29
     f48:	cf 91       	pop	r28
     f4a:	1f 91       	pop	r17
     f4c:	0f 91       	pop	r16
     f4e:	ff 90       	pop	r15
     f50:	ef 90       	pop	r14
     f52:	df 90       	pop	r13
     f54:	cf 90       	pop	r12
     f56:	bf 90       	pop	r11
     f58:	af 90       	pop	r10
     f5a:	9f 90       	pop	r9
     f5c:	08 95       	ret

00000f5e <xQueueReceive>:
/*-----------------------------------------------------------*/

BaseType_t xQueueReceive( QueueHandle_t xQueue, void * const pvBuffer, TickType_t xTicksToWait )
{
     f5e:	9f 92       	push	r9
     f60:	af 92       	push	r10
     f62:	bf 92       	push	r11
     f64:	cf 92       	push	r12
     f66:	df 92       	push	r13
     f68:	ef 92       	push	r14
     f6a:	ff 92       	push	r15
     f6c:	0f 93       	push	r16
     f6e:	1f 93       	push	r17
     f70:	cf 93       	push	r28
     f72:	df 93       	push	r29
     f74:	00 d0       	rcall	.+0      	; 0xf76 <xQueueReceive+0x18>
     f76:	00 d0       	rcall	.+0      	; 0xf78 <xQueueReceive+0x1a>
     f78:	1f 92       	push	r1
     f7a:	cd b7       	in	r28, 0x3d	; 61
     f7c:	de b7       	in	r29, 0x3e	; 62
     f7e:	8c 01       	movw	r16, r24
     f80:	5b 01       	movw	r10, r22
     f82:	5d 83       	std	Y+5, r21	; 0x05
     f84:	4c 83       	std	Y+4, r20	; 0x04
BaseType_t xEntryTimeSet = pdFALSE;
     f86:	e1 2c       	mov	r14, r1
				else if( xEntryTimeSet == pdFALSE )
				{
					/* The queue was empty and a block time was specified so
					configure the timeout structure. */
					vTaskInternalSetTimeOutState( &xTimeOut );
					xEntryTimeSet = pdTRUE;
     f88:	99 24       	eor	r9, r9
     f8a:	93 94       	inc	r9
			/* The timeout has not expired.  If the queue is still empty place
			the task on the list of tasks waiting to receive from the queue. */
			if( prvIsQueueEmpty( pxQueue ) != pdFALSE )
			{
				traceBLOCKING_ON_QUEUE_RECEIVE( pxQueue );
				vTaskPlaceOnEventList( &( pxQueue->xTasksWaitingToReceive ), xTicksToWait );
     f8c:	6c 01       	movw	r12, r24
     f8e:	81 e1       	ldi	r24, 0x11	; 17
     f90:	c8 0e       	add	r12, r24
     f92:	d1 1c       	adc	r13, r1
	/*lint -save -e904  This function relaxes the coding standard somewhat to
	allow return statements within the function itself.  This is done in the
	interest of execution time efficiency. */
	for( ;; )
	{
		taskENTER_CRITICAL();
     f94:	0f b6       	in	r0, 0x3f	; 63
     f96:	f8 94       	cli
     f98:	0f 92       	push	r0
		{
			const UBaseType_t uxMessagesWaiting = pxQueue->uxMessagesWaiting;
     f9a:	f8 01       	movw	r30, r16
     f9c:	f2 8c       	ldd	r15, Z+26	; 0x1a

			/* Is there data in the queue now?  To be running the calling task
			must be the highest priority task wanting to access the queue. */
			if( uxMessagesWaiting > ( UBaseType_t ) 0 )
     f9e:	ff 20       	and	r15, r15
     fa0:	91 f0       	breq	.+36     	; 0xfc6 <xQueueReceive+0x68>
			{
				/* Data available, remove one item. */
				prvCopyDataFromQueue( pxQueue, pvBuffer );
     fa2:	b5 01       	movw	r22, r10
     fa4:	c8 01       	movw	r24, r16
     fa6:	0e 94 40 06 	call	0xc80	; 0xc80 <prvCopyDataFromQueue>
				traceQUEUE_RECEIVE( pxQueue );
				pxQueue->uxMessagesWaiting = uxMessagesWaiting - ( UBaseType_t ) 1;
     faa:	fa 94       	dec	r15
     fac:	f8 01       	movw	r30, r16
     fae:	f2 8e       	std	Z+26, r15	; 0x1a

				/* There is now space in the queue, were any tasks waiting to
				post to the queue?  If so, unblock the highest priority waiting
				task. */
				if( listLIST_IS_EMPTY( &( pxQueue->xTasksWaitingToSend ) ) == pdFALSE )
     fb0:	80 85       	ldd	r24, Z+8	; 0x08
     fb2:	88 23       	and	r24, r24
     fb4:	21 f0       	breq	.+8      	; 0xfbe <xQueueReceive+0x60>
				{
					if( xTaskRemoveFromEventList( &( pxQueue->xTasksWaitingToSend ) ) != pdFALSE )
     fb6:	c8 01       	movw	r24, r16
     fb8:	08 96       	adiw	r24, 0x08	; 8
     fba:	0e 94 3d 0c 	call	0x187a	; 0x187a <xTaskRemoveFromEventList>
				else
				{
					mtCOVERAGE_TEST_MARKER();
				}

				taskEXIT_CRITICAL();
     fbe:	0f 90       	pop	r0
     fc0:	0f be       	out	0x3f, r0	; 63
				return pdPASS;
     fc2:	81 e0       	ldi	r24, 0x01	; 1
     fc4:	51 c0       	rjmp	.+162    	; 0x1068 <xQueueReceive+0x10a>
			}
			else
			{
				if( xTicksToWait == ( TickType_t ) 0 )
     fc6:	8c 81       	ldd	r24, Y+4	; 0x04
     fc8:	9d 81       	ldd	r25, Y+5	; 0x05
     fca:	89 2b       	or	r24, r25
     fcc:	21 f4       	brne	.+8      	; 0xfd6 <xQueueReceive+0x78>
				{
					/* The queue was empty and no block time is specified (or
					the block time has expired) so leave now. */
					taskEXIT_CRITICAL();
     fce:	0f 90       	pop	r0
     fd0:	0f be       	out	0x3f, r0	; 63
					traceQUEUE_RECEIVE_FAILED( pxQueue );
					return errQUEUE_EMPTY;
     fd2:	80 e0       	ldi	r24, 0x00	; 0
     fd4:	49 c0       	rjmp	.+146    	; 0x1068 <xQueueReceive+0x10a>
				}
				else if( xEntryTimeSet == pdFALSE )
     fd6:	e1 10       	cpse	r14, r1
     fd8:	05 c0       	rjmp	.+10     	; 0xfe4 <xQueueReceive+0x86>
				{
					/* The queue was empty and a block time was specified so
					configure the timeout structure. */
					vTaskInternalSetTimeOutState( &xTimeOut );
     fda:	ce 01       	movw	r24, r28
     fdc:	01 96       	adiw	r24, 0x01	; 1
     fde:	0e 94 85 0c 	call	0x190a	; 0x190a <vTaskInternalSetTimeOutState>
					xEntryTimeSet = pdTRUE;
     fe2:	e9 2c       	mov	r14, r9
					/* Entry time was already set. */
					mtCOVERAGE_TEST_MARKER();
				}
			}
		}
		taskEXIT_CRITICAL();
     fe4:	0f 90       	pop	r0
     fe6:	0f be       	out	0x3f, r0	; 63

		/* Interrupts and other tasks can send to and receive from the queue
		now the critical section has been exited. */

		vTaskSuspendAll();
     fe8:	0e 94 39 0a 	call	0x1472	; 0x1472 <vTaskSuspendAll>
		prvLockQueue( pxQueue );
     fec:	0f b6       	in	r0, 0x3f	; 63
     fee:	f8 94       	cli
     ff0:	0f 92       	push	r0
     ff2:	f8 01       	movw	r30, r16
     ff4:	85 8d       	ldd	r24, Z+29	; 0x1d
     ff6:	8f 3f       	cpi	r24, 0xFF	; 255
     ff8:	09 f4       	brne	.+2      	; 0xffc <xQueueReceive+0x9e>
     ffa:	15 8e       	std	Z+29, r1	; 0x1d
     ffc:	f8 01       	movw	r30, r16
     ffe:	86 8d       	ldd	r24, Z+30	; 0x1e
    1000:	8f 3f       	cpi	r24, 0xFF	; 255
    1002:	09 f4       	brne	.+2      	; 0x1006 <xQueueReceive+0xa8>
    1004:	16 8e       	std	Z+30, r1	; 0x1e
    1006:	0f 90       	pop	r0
    1008:	0f be       	out	0x3f, r0	; 63

		/* Update the timeout state to see if it has expired yet. */
		if( xTaskCheckForTimeOut( &xTimeOut, &xTicksToWait ) == pdFALSE )
    100a:	be 01       	movw	r22, r28
    100c:	6c 5f       	subi	r22, 0xFC	; 252
    100e:	7f 4f       	sbci	r23, 0xFF	; 255
    1010:	ce 01       	movw	r24, r28
    1012:	01 96       	adiw	r24, 0x01	; 1
    1014:	0e 94 90 0c 	call	0x1920	; 0x1920 <xTaskCheckForTimeOut>
    1018:	81 11       	cpse	r24, r1
    101a:	1a c0       	rjmp	.+52     	; 0x1050 <xQueueReceive+0xf2>
		{
			/* The timeout has not expired.  If the queue is still empty place
			the task on the list of tasks waiting to receive from the queue. */
			if( prvIsQueueEmpty( pxQueue ) != pdFALSE )
    101c:	c8 01       	movw	r24, r16
    101e:	0e 94 d6 05 	call	0xbac	; 0xbac <prvIsQueueEmpty>
    1022:	88 23       	and	r24, r24
    1024:	79 f0       	breq	.+30     	; 0x1044 <xQueueReceive+0xe6>
			{
				traceBLOCKING_ON_QUEUE_RECEIVE( pxQueue );
				vTaskPlaceOnEventList( &( pxQueue->xTasksWaitingToReceive ), xTicksToWait );
    1026:	6c 81       	ldd	r22, Y+4	; 0x04
    1028:	7d 81       	ldd	r23, Y+5	; 0x05
    102a:	c6 01       	movw	r24, r12
    102c:	0e 94 2b 0c 	call	0x1856	; 0x1856 <vTaskPlaceOnEventList>
				prvUnlockQueue( pxQueue );
    1030:	c8 01       	movw	r24, r16
    1032:	0e 94 5a 06 	call	0xcb4	; 0xcb4 <prvUnlockQueue>
				if( xTaskResumeAll() == pdFALSE )
    1036:	0e 94 e8 0a 	call	0x15d0	; 0x15d0 <xTaskResumeAll>
    103a:	81 11       	cpse	r24, r1
    103c:	ab cf       	rjmp	.-170    	; 0xf94 <xQueueReceive+0x36>
				{
					portYIELD_WITHIN_API();
    103e:	0e 94 59 05 	call	0xab2	; 0xab2 <vPortYield>
    1042:	a8 cf       	rjmp	.-176    	; 0xf94 <xQueueReceive+0x36>
			}
			else
			{
				/* The queue contains data again.  Loop back to try and read the
				data. */
				prvUnlockQueue( pxQueue );
    1044:	c8 01       	movw	r24, r16
    1046:	0e 94 5a 06 	call	0xcb4	; 0xcb4 <prvUnlockQueue>
				( void ) xTaskResumeAll();
    104a:	0e 94 e8 0a 	call	0x15d0	; 0x15d0 <xTaskResumeAll>
    104e:	a2 cf       	rjmp	.-188    	; 0xf94 <xQueueReceive+0x36>
		}
		else
		{
			/* Timed out.  If there is no data in the queue exit, otherwise loop
			back and attempt to read the data. */
			prvUnlockQueue( pxQueue );
    1050:	c8 01       	movw	r24, r16
    1052:	0e 94 5a 06 	call	0xcb4	; 0xcb4 <prvUnlockQueue>
			( void ) xTaskResumeAll();
    1056:	0e 94 e8 0a 	call	0x15d0	; 0x15d0 <xTaskResumeAll>

			if( prvIsQueueEmpty( pxQueue ) != pdFALSE )
    105a:	c8 01       	movw	r24, r16
    105c:	0e 94 d6 05 	call	0xbac	; 0xbac <prvIsQueueEmpty>
    1060:	88 23       	and	r24, r24
    1062:	09 f4       	brne	.+2      	; 0x1066 <xQueueReceive+0x108>
    1064:	97 cf       	rjmp	.-210    	; 0xf94 <xQueueReceive+0x36>
			{
				traceQUEUE_RECEIVE_FAILED( pxQueue );
				return errQUEUE_EMPTY;
    1066:	80 e0       	ldi	r24, 0x00	; 0
			{
				mtCOVERAGE_TEST_MARKER();
			}
		}
	} /*lint -restore */
}
    1068:	0f 90       	pop	r0
    106a:	0f 90       	pop	r0
    106c:	0f 90       	pop	r0
    106e:	0f 90       	pop	r0
    1070:	0f 90       	pop	r0
    1072:	df 91       	pop	r29
    1074:	cf 91       	pop	r28
    1076:	1f 91       	pop	r17
    1078:	0f 91       	pop	r16
    107a:	ff 90       	pop	r15
    107c:	ef 90       	pop	r14
    107e:	df 90       	pop	r13
    1080:	cf 90       	pop	r12
    1082:	bf 90       	pop	r11
    1084:	af 90       	pop	r10
    1086:	9f 90       	pop	r9
    1088:	08 95       	ret

0000108a <prvResetNextTaskUnblockTime>:
		{
			mtCOVERAGE_TEST_MARKER();
		}

		return xReturn;
	}
    108a:	e0 91 db 06 	lds	r30, 0x06DB	; 0x8006db <pxDelayedTaskList>
    108e:	f0 91 dc 06 	lds	r31, 0x06DC	; 0x8006dc <pxDelayedTaskList+0x1>
    1092:	80 81       	ld	r24, Z
    1094:	81 11       	cpse	r24, r1
    1096:	07 c0       	rjmp	.+14     	; 0x10a6 <prvResetNextTaskUnblockTime+0x1c>
    1098:	8f ef       	ldi	r24, 0xFF	; 255
    109a:	9f ef       	ldi	r25, 0xFF	; 255
    109c:	90 93 bd 06 	sts	0x06BD, r25	; 0x8006bd <xNextTaskUnblockTime+0x1>
    10a0:	80 93 bc 06 	sts	0x06BC, r24	; 0x8006bc <xNextTaskUnblockTime>
    10a4:	08 95       	ret
    10a6:	e0 91 db 06 	lds	r30, 0x06DB	; 0x8006db <pxDelayedTaskList>
    10aa:	f0 91 dc 06 	lds	r31, 0x06DC	; 0x8006dc <pxDelayedTaskList+0x1>
    10ae:	05 80       	ldd	r0, Z+5	; 0x05
    10b0:	f6 81       	ldd	r31, Z+6	; 0x06
    10b2:	e0 2d       	mov	r30, r0
    10b4:	06 80       	ldd	r0, Z+6	; 0x06
    10b6:	f7 81       	ldd	r31, Z+7	; 0x07
    10b8:	e0 2d       	mov	r30, r0
    10ba:	82 81       	ldd	r24, Z+2	; 0x02
    10bc:	93 81       	ldd	r25, Z+3	; 0x03
    10be:	90 93 bd 06 	sts	0x06BD, r25	; 0x8006bd <xNextTaskUnblockTime+0x1>
    10c2:	80 93 bc 06 	sts	0x06BC, r24	; 0x8006bc <xNextTaskUnblockTime>
    10c6:	08 95       	ret

000010c8 <prvIdleTask>:
    10c8:	0e 94 59 05 	call	0xab2	; 0xab2 <vPortYield>
    10cc:	fd cf       	rjmp	.-6      	; 0x10c8 <prvIdleTask>

000010ce <prvAddCurrentTaskToDelayedList>:
    10ce:	ff 92       	push	r15
    10d0:	0f 93       	push	r16
    10d2:	1f 93       	push	r17
    10d4:	cf 93       	push	r28
    10d6:	df 93       	push	r29
    10d8:	ec 01       	movw	r28, r24
    10da:	f6 2e       	mov	r15, r22
    10dc:	00 91 c4 06 	lds	r16, 0x06C4	; 0x8006c4 <xTickCount>
    10e0:	10 91 c5 06 	lds	r17, 0x06C5	; 0x8006c5 <xTickCount+0x1>
    10e4:	80 91 25 07 	lds	r24, 0x0725	; 0x800725 <pxCurrentTCB>
    10e8:	90 91 26 07 	lds	r25, 0x0726	; 0x800726 <pxCurrentTCB+0x1>
    10ec:	02 96       	adiw	r24, 0x02	; 2
    10ee:	0e 94 91 04 	call	0x922	; 0x922 <uxListRemove>
    10f2:	cf 3f       	cpi	r28, 0xFF	; 255
    10f4:	8f ef       	ldi	r24, 0xFF	; 255
    10f6:	d8 07       	cpc	r29, r24
    10f8:	69 f4       	brne	.+26     	; 0x1114 <prvAddCurrentTaskToDelayedList+0x46>
    10fa:	ff 20       	and	r15, r15
    10fc:	59 f0       	breq	.+22     	; 0x1114 <prvAddCurrentTaskToDelayedList+0x46>
    10fe:	60 91 25 07 	lds	r22, 0x0725	; 0x800725 <pxCurrentTCB>
    1102:	70 91 26 07 	lds	r23, 0x0726	; 0x800726 <pxCurrentTCB+0x1>
    1106:	6e 5f       	subi	r22, 0xFE	; 254
    1108:	7f 4f       	sbci	r23, 0xFF	; 255
    110a:	87 ec       	ldi	r24, 0xC7	; 199
    110c:	96 e0       	ldi	r25, 0x06	; 6
    110e:	0e 94 3f 04 	call	0x87e	; 0x87e <vListInsertEnd>
    1112:	2f c0       	rjmp	.+94     	; 0x1172 <prvAddCurrentTaskToDelayedList+0xa4>
    1114:	c0 0f       	add	r28, r16
    1116:	d1 1f       	adc	r29, r17
    1118:	e0 91 25 07 	lds	r30, 0x0725	; 0x800725 <pxCurrentTCB>
    111c:	f0 91 26 07 	lds	r31, 0x0726	; 0x800726 <pxCurrentTCB+0x1>
    1120:	d3 83       	std	Z+3, r29	; 0x03
    1122:	c2 83       	std	Z+2, r28	; 0x02
    1124:	c0 17       	cp	r28, r16
    1126:	d1 07       	cpc	r29, r17
    1128:	68 f4       	brcc	.+26     	; 0x1144 <prvAddCurrentTaskToDelayedList+0x76>
    112a:	60 91 25 07 	lds	r22, 0x0725	; 0x800725 <pxCurrentTCB>
    112e:	70 91 26 07 	lds	r23, 0x0726	; 0x800726 <pxCurrentTCB+0x1>
    1132:	80 91 d9 06 	lds	r24, 0x06D9	; 0x8006d9 <pxOverflowDelayedTaskList>
    1136:	90 91 da 06 	lds	r25, 0x06DA	; 0x8006da <pxOverflowDelayedTaskList+0x1>
    113a:	6e 5f       	subi	r22, 0xFE	; 254
    113c:	7f 4f       	sbci	r23, 0xFF	; 255
    113e:	0e 94 60 04 	call	0x8c0	; 0x8c0 <vListInsert>
    1142:	17 c0       	rjmp	.+46     	; 0x1172 <prvAddCurrentTaskToDelayedList+0xa4>
    1144:	60 91 25 07 	lds	r22, 0x0725	; 0x800725 <pxCurrentTCB>
    1148:	70 91 26 07 	lds	r23, 0x0726	; 0x800726 <pxCurrentTCB+0x1>
    114c:	80 91 db 06 	lds	r24, 0x06DB	; 0x8006db <pxDelayedTaskList>
    1150:	90 91 dc 06 	lds	r25, 0x06DC	; 0x8006dc <pxDelayedTaskList+0x1>
    1154:	6e 5f       	subi	r22, 0xFE	; 254
    1156:	7f 4f       	sbci	r23, 0xFF	; 255
    1158:	0e 94 60 04 	call	0x8c0	; 0x8c0 <vListInsert>
    115c:	80 91 bc 06 	lds	r24, 0x06BC	; 0x8006bc <xNextTaskUnblockTime>
    1160:	90 91 bd 06 	lds	r25, 0x06BD	; 0x8006bd <xNextTaskUnblockTime+0x1>
    1164:	c8 17       	cp	r28, r24
    1166:	d9 07       	cpc	r29, r25
    1168:	20 f4       	brcc	.+8      	; 0x1172 <prvAddCurrentTaskToDelayedList+0xa4>
    116a:	d0 93 bd 06 	sts	0x06BD, r29	; 0x8006bd <xNextTaskUnblockTime+0x1>
    116e:	c0 93 bc 06 	sts	0x06BC, r28	; 0x8006bc <xNextTaskUnblockTime>
    1172:	df 91       	pop	r29
    1174:	cf 91       	pop	r28
    1176:	1f 91       	pop	r17
    1178:	0f 91       	pop	r16
    117a:	ff 90       	pop	r15
    117c:	08 95       	ret

0000117e <xTaskCreate>:
    117e:	4f 92       	push	r4
    1180:	5f 92       	push	r5
    1182:	6f 92       	push	r6
    1184:	7f 92       	push	r7
    1186:	8f 92       	push	r8
    1188:	9f 92       	push	r9
    118a:	af 92       	push	r10
    118c:	bf 92       	push	r11
    118e:	cf 92       	push	r12
    1190:	df 92       	push	r13
    1192:	ef 92       	push	r14
    1194:	ff 92       	push	r15
    1196:	0f 93       	push	r16
    1198:	1f 93       	push	r17
    119a:	cf 93       	push	r28
    119c:	df 93       	push	r29
    119e:	4c 01       	movw	r8, r24
    11a0:	6b 01       	movw	r12, r22
    11a2:	5a 01       	movw	r10, r20
    11a4:	29 01       	movw	r4, r18
    11a6:	ca 01       	movw	r24, r20
    11a8:	0e 94 f7 03 	call	0x7ee	; 0x7ee <pvPortMalloc>
    11ac:	3c 01       	movw	r6, r24
    11ae:	89 2b       	or	r24, r25
    11b0:	09 f4       	brne	.+2      	; 0x11b4 <xTaskCreate+0x36>
    11b2:	dc c0       	rjmp	.+440    	; 0x136c <xTaskCreate+0x1ee>
    11b4:	84 e3       	ldi	r24, 0x34	; 52
    11b6:	90 e0       	ldi	r25, 0x00	; 0
    11b8:	0e 94 f7 03 	call	0x7ee	; 0x7ee <pvPortMalloc>
    11bc:	ec 01       	movw	r28, r24
    11be:	89 2b       	or	r24, r25
    11c0:	59 f0       	breq	.+22     	; 0x11d8 <xTaskCreate+0x5a>
    11c2:	78 8e       	std	Y+24, r7	; 0x18
    11c4:	6f 8a       	std	Y+23, r6	; 0x17
    11c6:	81 e0       	ldi	r24, 0x01	; 1
    11c8:	a8 1a       	sub	r10, r24
    11ca:	b1 08       	sbc	r11, r1
    11cc:	6a 0c       	add	r6, r10
    11ce:	7b 1c       	adc	r7, r11
    11d0:	c1 14       	cp	r12, r1
    11d2:	d1 04       	cpc	r13, r1
    11d4:	29 f4       	brne	.+10     	; 0x11e0 <xTaskCreate+0x62>
    11d6:	20 c0       	rjmp	.+64     	; 0x1218 <xTaskCreate+0x9a>
    11d8:	c3 01       	movw	r24, r6
    11da:	0e 94 2c 04 	call	0x858	; 0x858 <vPortFree>
    11de:	c6 c0       	rjmp	.+396    	; 0x136c <xTaskCreate+0x1ee>
    11e0:	d6 01       	movw	r26, r12
    11e2:	8c 91       	ld	r24, X
    11e4:	89 8f       	std	Y+25, r24	; 0x19
    11e6:	8c 91       	ld	r24, X
    11e8:	88 23       	and	r24, r24
    11ea:	a1 f0       	breq	.+40     	; 0x1214 <xTaskCreate+0x96>
    11ec:	ae 01       	movw	r20, r28
    11ee:	46 5e       	subi	r20, 0xE6	; 230
    11f0:	5f 4f       	sbci	r21, 0xFF	; 255
    11f2:	f6 01       	movw	r30, r12
    11f4:	31 96       	adiw	r30, 0x01	; 1
    11f6:	b4 e1       	ldi	r27, 0x14	; 20
    11f8:	cb 0e       	add	r12, r27
    11fa:	d1 1c       	adc	r13, r1
    11fc:	cf 01       	movw	r24, r30
    11fe:	21 91       	ld	r18, Z+
    1200:	da 01       	movw	r26, r20
    1202:	2d 93       	st	X+, r18
    1204:	ad 01       	movw	r20, r26
    1206:	dc 01       	movw	r26, r24
    1208:	8c 91       	ld	r24, X
    120a:	88 23       	and	r24, r24
    120c:	19 f0       	breq	.+6      	; 0x1214 <xTaskCreate+0x96>
    120e:	ce 16       	cp	r12, r30
    1210:	df 06       	cpc	r13, r31
    1212:	a1 f7       	brne	.-24     	; 0x11fc <xTaskCreate+0x7e>
    1214:	1c a6       	std	Y+44, r1	; 0x2c
    1216:	01 c0       	rjmp	.+2      	; 0x121a <xTaskCreate+0x9c>
    1218:	19 8e       	std	Y+25, r1	; 0x19
    121a:	06 30       	cpi	r16, 0x06	; 6
    121c:	08 f0       	brcs	.+2      	; 0x1220 <xTaskCreate+0xa2>
    121e:	05 e0       	ldi	r16, 0x05	; 5
    1220:	0e 8b       	std	Y+22, r16	; 0x16
    1222:	0d a7       	std	Y+45, r16	; 0x2d
    1224:	1e a6       	std	Y+46, r1	; 0x2e
    1226:	6e 01       	movw	r12, r28
    1228:	b2 e0       	ldi	r27, 0x02	; 2
    122a:	cb 0e       	add	r12, r27
    122c:	d1 1c       	adc	r13, r1
    122e:	c6 01       	movw	r24, r12
    1230:	0e 94 3b 04 	call	0x876	; 0x876 <vListInitialiseItem>
    1234:	ce 01       	movw	r24, r28
    1236:	0c 96       	adiw	r24, 0x0c	; 12
    1238:	0e 94 3b 04 	call	0x876	; 0x876 <vListInitialiseItem>
    123c:	d9 87       	std	Y+9, r29	; 0x09
    123e:	c8 87       	std	Y+8, r28	; 0x08
    1240:	86 e0       	ldi	r24, 0x06	; 6
    1242:	90 e0       	ldi	r25, 0x00	; 0
    1244:	80 1b       	sub	r24, r16
    1246:	91 09       	sbc	r25, r1
    1248:	9d 87       	std	Y+13, r25	; 0x0d
    124a:	8c 87       	std	Y+12, r24	; 0x0c
    124c:	db 8b       	std	Y+19, r29	; 0x13
    124e:	ca 8b       	std	Y+18, r28	; 0x12
    1250:	1f a6       	std	Y+47, r1	; 0x2f
    1252:	18 aa       	std	Y+48, r1	; 0x30
    1254:	19 aa       	std	Y+49, r1	; 0x31
    1256:	1a aa       	std	Y+50, r1	; 0x32
    1258:	1b aa       	std	Y+51, r1	; 0x33
    125a:	a2 01       	movw	r20, r4
    125c:	b4 01       	movw	r22, r8
    125e:	c3 01       	movw	r24, r6
    1260:	0e 94 b8 04 	call	0x970	; 0x970 <pxPortInitialiseStack>
    1264:	99 83       	std	Y+1, r25	; 0x01
    1266:	88 83       	st	Y, r24
    1268:	e1 14       	cp	r14, r1
    126a:	f1 04       	cpc	r15, r1
    126c:	19 f0       	breq	.+6      	; 0x1274 <xTaskCreate+0xf6>
    126e:	f7 01       	movw	r30, r14
    1270:	d1 83       	std	Z+1, r29	; 0x01
    1272:	c0 83       	st	Z, r28
    1274:	0f b6       	in	r0, 0x3f	; 63
    1276:	f8 94       	cli
    1278:	0f 92       	push	r0
    127a:	80 91 c6 06 	lds	r24, 0x06C6	; 0x8006c6 <uxCurrentNumberOfTasks>
    127e:	8f 5f       	subi	r24, 0xFF	; 255
    1280:	80 93 c6 06 	sts	0x06C6, r24	; 0x8006c6 <uxCurrentNumberOfTasks>
    1284:	80 91 25 07 	lds	r24, 0x0725	; 0x800725 <pxCurrentTCB>
    1288:	90 91 26 07 	lds	r25, 0x0726	; 0x800726 <pxCurrentTCB+0x1>
    128c:	89 2b       	or	r24, r25
    128e:	a9 f5       	brne	.+106    	; 0x12fa <xTaskCreate+0x17c>
    1290:	d0 93 26 07 	sts	0x0726, r29	; 0x800726 <pxCurrentTCB+0x1>
    1294:	c0 93 25 07 	sts	0x0725, r28	; 0x800725 <pxCurrentTCB>
    1298:	80 91 c6 06 	lds	r24, 0x06C6	; 0x8006c6 <uxCurrentNumberOfTasks>
    129c:	81 30       	cpi	r24, 0x01	; 1
    129e:	e9 f5       	brne	.+122    	; 0x131a <xTaskCreate+0x19c>
    12a0:	0f ee       	ldi	r16, 0xEF	; 239
    12a2:	16 e0       	ldi	r17, 0x06	; 6
    12a4:	0f 2e       	mov	r0, r31
    12a6:	f5 e2       	ldi	r31, 0x25	; 37
    12a8:	ef 2e       	mov	r14, r31
    12aa:	f7 e0       	ldi	r31, 0x07	; 7
    12ac:	ff 2e       	mov	r15, r31
    12ae:	f0 2d       	mov	r31, r0
    12b0:	c8 01       	movw	r24, r16
    12b2:	0e 94 2d 04 	call	0x85a	; 0x85a <vListInitialise>
    12b6:	07 5f       	subi	r16, 0xF7	; 247
    12b8:	1f 4f       	sbci	r17, 0xFF	; 255
    12ba:	0e 15       	cp	r16, r14
    12bc:	1f 05       	cpc	r17, r15
    12be:	c1 f7       	brne	.-16     	; 0x12b0 <xTaskCreate+0x132>
    12c0:	86 ee       	ldi	r24, 0xE6	; 230
    12c2:	96 e0       	ldi	r25, 0x06	; 6
    12c4:	0e 94 2d 04 	call	0x85a	; 0x85a <vListInitialise>
    12c8:	8d ed       	ldi	r24, 0xDD	; 221
    12ca:	96 e0       	ldi	r25, 0x06	; 6
    12cc:	0e 94 2d 04 	call	0x85a	; 0x85a <vListInitialise>
    12d0:	80 ed       	ldi	r24, 0xD0	; 208
    12d2:	96 e0       	ldi	r25, 0x06	; 6
    12d4:	0e 94 2d 04 	call	0x85a	; 0x85a <vListInitialise>
    12d8:	87 ec       	ldi	r24, 0xC7	; 199
    12da:	96 e0       	ldi	r25, 0x06	; 6
    12dc:	0e 94 2d 04 	call	0x85a	; 0x85a <vListInitialise>
    12e0:	86 ee       	ldi	r24, 0xE6	; 230
    12e2:	96 e0       	ldi	r25, 0x06	; 6
    12e4:	90 93 dc 06 	sts	0x06DC, r25	; 0x8006dc <pxDelayedTaskList+0x1>
    12e8:	80 93 db 06 	sts	0x06DB, r24	; 0x8006db <pxDelayedTaskList>
    12ec:	8d ed       	ldi	r24, 0xDD	; 221
    12ee:	96 e0       	ldi	r25, 0x06	; 6
    12f0:	90 93 da 06 	sts	0x06DA, r25	; 0x8006da <pxOverflowDelayedTaskList+0x1>
    12f4:	80 93 d9 06 	sts	0x06D9, r24	; 0x8006d9 <pxOverflowDelayedTaskList>
    12f8:	10 c0       	rjmp	.+32     	; 0x131a <xTaskCreate+0x19c>
    12fa:	80 91 c2 06 	lds	r24, 0x06C2	; 0x8006c2 <xSchedulerRunning>
    12fe:	81 11       	cpse	r24, r1
    1300:	0c c0       	rjmp	.+24     	; 0x131a <xTaskCreate+0x19c>
    1302:	e0 91 25 07 	lds	r30, 0x0725	; 0x800725 <pxCurrentTCB>
    1306:	f0 91 26 07 	lds	r31, 0x0726	; 0x800726 <pxCurrentTCB+0x1>
    130a:	96 89       	ldd	r25, Z+22	; 0x16
    130c:	8e 89       	ldd	r24, Y+22	; 0x16
    130e:	89 17       	cp	r24, r25
    1310:	20 f0       	brcs	.+8      	; 0x131a <xTaskCreate+0x19c>
    1312:	d0 93 26 07 	sts	0x0726, r29	; 0x800726 <pxCurrentTCB+0x1>
    1316:	c0 93 25 07 	sts	0x0725, r28	; 0x800725 <pxCurrentTCB>
    131a:	80 91 be 06 	lds	r24, 0x06BE	; 0x8006be <uxTaskNumber>
    131e:	8f 5f       	subi	r24, 0xFF	; 255
    1320:	80 93 be 06 	sts	0x06BE, r24	; 0x8006be <uxTaskNumber>
    1324:	8e 89       	ldd	r24, Y+22	; 0x16
    1326:	90 91 c3 06 	lds	r25, 0x06C3	; 0x8006c3 <uxTopReadyPriority>
    132a:	98 17       	cp	r25, r24
    132c:	10 f4       	brcc	.+4      	; 0x1332 <xTaskCreate+0x1b4>
    132e:	80 93 c3 06 	sts	0x06C3, r24	; 0x8006c3 <uxTopReadyPriority>
    1332:	90 e0       	ldi	r25, 0x00	; 0
    1334:	9c 01       	movw	r18, r24
    1336:	22 0f       	add	r18, r18
    1338:	33 1f       	adc	r19, r19
    133a:	22 0f       	add	r18, r18
    133c:	33 1f       	adc	r19, r19
    133e:	22 0f       	add	r18, r18
    1340:	33 1f       	adc	r19, r19
    1342:	82 0f       	add	r24, r18
    1344:	93 1f       	adc	r25, r19
    1346:	b6 01       	movw	r22, r12
    1348:	81 51       	subi	r24, 0x11	; 17
    134a:	99 4f       	sbci	r25, 0xF9	; 249
    134c:	0e 94 3f 04 	call	0x87e	; 0x87e <vListInsertEnd>
    1350:	0f 90       	pop	r0
    1352:	0f be       	out	0x3f, r0	; 63
    1354:	80 91 c2 06 	lds	r24, 0x06C2	; 0x8006c2 <xSchedulerRunning>
    1358:	88 23       	and	r24, r24
    135a:	31 f0       	breq	.+12     	; 0x1368 <xTaskCreate+0x1ea>
    135c:	80 91 25 07 	lds	r24, 0x0725	; 0x800725 <pxCurrentTCB>
    1360:	90 91 26 07 	lds	r25, 0x0726	; 0x800726 <pxCurrentTCB+0x1>
    1364:	81 e0       	ldi	r24, 0x01	; 1
    1366:	03 c0       	rjmp	.+6      	; 0x136e <xTaskCreate+0x1f0>
    1368:	81 e0       	ldi	r24, 0x01	; 1
    136a:	01 c0       	rjmp	.+2      	; 0x136e <xTaskCreate+0x1f0>
    136c:	8f ef       	ldi	r24, 0xFF	; 255
    136e:	df 91       	pop	r29
    1370:	cf 91       	pop	r28
    1372:	1f 91       	pop	r17
    1374:	0f 91       	pop	r16
    1376:	ff 90       	pop	r15
    1378:	ef 90       	pop	r14
    137a:	df 90       	pop	r13
    137c:	cf 90       	pop	r12
    137e:	bf 90       	pop	r11
    1380:	af 90       	pop	r10
    1382:	9f 90       	pop	r9
    1384:	8f 90       	pop	r8
    1386:	7f 90       	pop	r7
    1388:	6f 90       	pop	r6
    138a:	5f 90       	pop	r5
    138c:	4f 90       	pop	r4
    138e:	08 95       	ret

00001390 <vTaskResume>:
    1390:	0f 93       	push	r16
    1392:	1f 93       	push	r17
    1394:	cf 93       	push	r28
    1396:	df 93       	push	r29
    1398:	20 91 25 07 	lds	r18, 0x0725	; 0x800725 <pxCurrentTCB>
    139c:	30 91 26 07 	lds	r19, 0x0726	; 0x800726 <pxCurrentTCB+0x1>
    13a0:	82 17       	cp	r24, r18
    13a2:	93 07       	cpc	r25, r19
    13a4:	b9 f1       	breq	.+110    	; 0x1414 <vTaskResume+0x84>
    13a6:	00 97       	sbiw	r24, 0x00	; 0
    13a8:	a9 f1       	breq	.+106    	; 0x1414 <vTaskResume+0x84>
    13aa:	0f b6       	in	r0, 0x3f	; 63
    13ac:	f8 94       	cli
    13ae:	0f 92       	push	r0
    13b0:	fc 01       	movw	r30, r24
    13b2:	22 85       	ldd	r18, Z+10	; 0x0a
    13b4:	33 85       	ldd	r19, Z+11	; 0x0b
    13b6:	27 5c       	subi	r18, 0xC7	; 199
    13b8:	36 40       	sbci	r19, 0x06	; 6
    13ba:	51 f5       	brne	.+84     	; 0x1410 <vTaskResume+0x80>
    13bc:	fc 01       	movw	r30, r24
    13be:	24 89       	ldd	r18, Z+20	; 0x14
    13c0:	35 89       	ldd	r19, Z+21	; 0x15
    13c2:	f6 e0       	ldi	r31, 0x06	; 6
    13c4:	20 3d       	cpi	r18, 0xD0	; 208
    13c6:	3f 07       	cpc	r19, r31
    13c8:	19 f1       	breq	.+70     	; 0x1410 <vTaskResume+0x80>
    13ca:	23 2b       	or	r18, r19
    13cc:	09 f5       	brne	.+66     	; 0x1410 <vTaskResume+0x80>
    13ce:	ec 01       	movw	r28, r24
    13d0:	8c 01       	movw	r16, r24
    13d2:	0e 5f       	subi	r16, 0xFE	; 254
    13d4:	1f 4f       	sbci	r17, 0xFF	; 255
    13d6:	c8 01       	movw	r24, r16
    13d8:	0e 94 91 04 	call	0x922	; 0x922 <uxListRemove>
    13dc:	8e 89       	ldd	r24, Y+22	; 0x16
    13de:	90 91 c3 06 	lds	r25, 0x06C3	; 0x8006c3 <uxTopReadyPriority>
    13e2:	98 17       	cp	r25, r24
    13e4:	10 f4       	brcc	.+4      	; 0x13ea <vTaskResume+0x5a>
    13e6:	80 93 c3 06 	sts	0x06C3, r24	; 0x8006c3 <uxTopReadyPriority>
    13ea:	90 e0       	ldi	r25, 0x00	; 0
    13ec:	9c 01       	movw	r18, r24
    13ee:	22 0f       	add	r18, r18
    13f0:	33 1f       	adc	r19, r19
    13f2:	22 0f       	add	r18, r18
    13f4:	33 1f       	adc	r19, r19
    13f6:	22 0f       	add	r18, r18
    13f8:	33 1f       	adc	r19, r19
    13fa:	82 0f       	add	r24, r18
    13fc:	93 1f       	adc	r25, r19
    13fe:	b8 01       	movw	r22, r16
    1400:	81 51       	subi	r24, 0x11	; 17
    1402:	99 4f       	sbci	r25, 0xF9	; 249
    1404:	0e 94 3f 04 	call	0x87e	; 0x87e <vListInsertEnd>
    1408:	80 91 25 07 	lds	r24, 0x0725	; 0x800725 <pxCurrentTCB>
    140c:	90 91 26 07 	lds	r25, 0x0726	; 0x800726 <pxCurrentTCB+0x1>
    1410:	0f 90       	pop	r0
    1412:	0f be       	out	0x3f, r0	; 63
    1414:	df 91       	pop	r29
    1416:	cf 91       	pop	r28
    1418:	1f 91       	pop	r17
    141a:	0f 91       	pop	r16
    141c:	08 95       	ret

0000141e <vTaskStartScheduler>:
    141e:	ef 92       	push	r14
    1420:	ff 92       	push	r15
    1422:	0f 93       	push	r16
    1424:	0f 2e       	mov	r0, r31
    1426:	fa eb       	ldi	r31, 0xBA	; 186
    1428:	ef 2e       	mov	r14, r31
    142a:	f6 e0       	ldi	r31, 0x06	; 6
    142c:	ff 2e       	mov	r15, r31
    142e:	f0 2d       	mov	r31, r0
    1430:	00 e0       	ldi	r16, 0x00	; 0
    1432:	20 e0       	ldi	r18, 0x00	; 0
    1434:	30 e0       	ldi	r19, 0x00	; 0
    1436:	45 e5       	ldi	r20, 0x55	; 85
    1438:	50 e0       	ldi	r21, 0x00	; 0
    143a:	68 eb       	ldi	r22, 0xB8	; 184
    143c:	70 e0       	ldi	r23, 0x00	; 0
    143e:	84 e6       	ldi	r24, 0x64	; 100
    1440:	98 e0       	ldi	r25, 0x08	; 8
    1442:	0e 94 bf 08 	call	0x117e	; 0x117e <xTaskCreate>
    1446:	81 30       	cpi	r24, 0x01	; 1
    1448:	81 f4       	brne	.+32     	; 0x146a <vTaskStartScheduler+0x4c>
    144a:	f8 94       	cli
    144c:	8f ef       	ldi	r24, 0xFF	; 255
    144e:	9f ef       	ldi	r25, 0xFF	; 255
    1450:	90 93 bd 06 	sts	0x06BD, r25	; 0x8006bd <xNextTaskUnblockTime+0x1>
    1454:	80 93 bc 06 	sts	0x06BC, r24	; 0x8006bc <xNextTaskUnblockTime>
    1458:	81 e0       	ldi	r24, 0x01	; 1
    145a:	80 93 c2 06 	sts	0x06C2, r24	; 0x8006c2 <xSchedulerRunning>
    145e:	10 92 c5 06 	sts	0x06C5, r1	; 0x8006c5 <xTickCount+0x1>
    1462:	10 92 c4 06 	sts	0x06C4, r1	; 0x8006c4 <xTickCount>
    1466:	0e 94 24 05 	call	0xa48	; 0xa48 <xPortStartScheduler>
    146a:	0f 91       	pop	r16
    146c:	ff 90       	pop	r15
    146e:	ef 90       	pop	r14
    1470:	08 95       	ret

00001472 <vTaskSuspendAll>:
    1472:	80 91 b9 06 	lds	r24, 0x06B9	; 0x8006b9 <uxSchedulerSuspended>
    1476:	8f 5f       	subi	r24, 0xFF	; 255
    1478:	80 93 b9 06 	sts	0x06B9, r24	; 0x8006b9 <uxSchedulerSuspended>
    147c:	08 95       	ret

0000147e <xTaskIncrementTick>:
    147e:	ef 92       	push	r14
    1480:	ff 92       	push	r15
    1482:	0f 93       	push	r16
    1484:	1f 93       	push	r17
    1486:	cf 93       	push	r28
    1488:	df 93       	push	r29
    148a:	80 91 b9 06 	lds	r24, 0x06B9	; 0x8006b9 <uxSchedulerSuspended>
    148e:	81 11       	cpse	r24, r1
    1490:	90 c0       	rjmp	.+288    	; 0x15b2 <xTaskIncrementTick+0x134>
    1492:	e0 90 c4 06 	lds	r14, 0x06C4	; 0x8006c4 <xTickCount>
    1496:	f0 90 c5 06 	lds	r15, 0x06C5	; 0x8006c5 <xTickCount+0x1>
    149a:	8f ef       	ldi	r24, 0xFF	; 255
    149c:	e8 1a       	sub	r14, r24
    149e:	f8 0a       	sbc	r15, r24
    14a0:	f0 92 c5 06 	sts	0x06C5, r15	; 0x8006c5 <xTickCount+0x1>
    14a4:	e0 92 c4 06 	sts	0x06C4, r14	; 0x8006c4 <xTickCount>
    14a8:	e1 14       	cp	r14, r1
    14aa:	f1 04       	cpc	r15, r1
    14ac:	b9 f4       	brne	.+46     	; 0x14dc <xTaskIncrementTick+0x5e>
    14ae:	80 91 db 06 	lds	r24, 0x06DB	; 0x8006db <pxDelayedTaskList>
    14b2:	90 91 dc 06 	lds	r25, 0x06DC	; 0x8006dc <pxDelayedTaskList+0x1>
    14b6:	20 91 d9 06 	lds	r18, 0x06D9	; 0x8006d9 <pxOverflowDelayedTaskList>
    14ba:	30 91 da 06 	lds	r19, 0x06DA	; 0x8006da <pxOverflowDelayedTaskList+0x1>
    14be:	30 93 dc 06 	sts	0x06DC, r19	; 0x8006dc <pxDelayedTaskList+0x1>
    14c2:	20 93 db 06 	sts	0x06DB, r18	; 0x8006db <pxDelayedTaskList>
    14c6:	90 93 da 06 	sts	0x06DA, r25	; 0x8006da <pxOverflowDelayedTaskList+0x1>
    14ca:	80 93 d9 06 	sts	0x06D9, r24	; 0x8006d9 <pxOverflowDelayedTaskList>
    14ce:	80 91 bf 06 	lds	r24, 0x06BF	; 0x8006bf <xNumOfOverflows>
    14d2:	8f 5f       	subi	r24, 0xFF	; 255
    14d4:	80 93 bf 06 	sts	0x06BF, r24	; 0x8006bf <xNumOfOverflows>
    14d8:	0e 94 45 08 	call	0x108a	; 0x108a <prvResetNextTaskUnblockTime>
    14dc:	80 91 bc 06 	lds	r24, 0x06BC	; 0x8006bc <xNextTaskUnblockTime>
    14e0:	90 91 bd 06 	lds	r25, 0x06BD	; 0x8006bd <xNextTaskUnblockTime+0x1>
    14e4:	e8 16       	cp	r14, r24
    14e6:	f9 06       	cpc	r15, r25
    14e8:	08 f4       	brcc	.+2      	; 0x14ec <xTaskIncrementTick+0x6e>
    14ea:	5c c0       	rjmp	.+184    	; 0x15a4 <xTaskIncrementTick+0x126>
    14ec:	e0 91 db 06 	lds	r30, 0x06DB	; 0x8006db <pxDelayedTaskList>
    14f0:	f0 91 dc 06 	lds	r31, 0x06DC	; 0x8006dc <pxDelayedTaskList+0x1>
    14f4:	80 81       	ld	r24, Z
    14f6:	88 23       	and	r24, r24
    14f8:	79 f0       	breq	.+30     	; 0x1518 <xTaskIncrementTick+0x9a>
    14fa:	e0 91 db 06 	lds	r30, 0x06DB	; 0x8006db <pxDelayedTaskList>
    14fe:	f0 91 dc 06 	lds	r31, 0x06DC	; 0x8006dc <pxDelayedTaskList+0x1>
    1502:	05 80       	ldd	r0, Z+5	; 0x05
    1504:	f6 81       	ldd	r31, Z+6	; 0x06
    1506:	e0 2d       	mov	r30, r0
    1508:	c6 81       	ldd	r28, Z+6	; 0x06
    150a:	d7 81       	ldd	r29, Z+7	; 0x07
    150c:	8a 81       	ldd	r24, Y+2	; 0x02
    150e:	9b 81       	ldd	r25, Y+3	; 0x03
    1510:	e8 16       	cp	r14, r24
    1512:	f9 06       	cpc	r15, r25
    1514:	d8 f4       	brcc	.+54     	; 0x154c <xTaskIncrementTick+0xce>
    1516:	15 c0       	rjmp	.+42     	; 0x1542 <xTaskIncrementTick+0xc4>
    1518:	8f ef       	ldi	r24, 0xFF	; 255
    151a:	9f ef       	ldi	r25, 0xFF	; 255
    151c:	90 93 bd 06 	sts	0x06BD, r25	; 0x8006bd <xNextTaskUnblockTime+0x1>
    1520:	80 93 bc 06 	sts	0x06BC, r24	; 0x8006bc <xNextTaskUnblockTime>
    1524:	3f c0       	rjmp	.+126    	; 0x15a4 <xTaskIncrementTick+0x126>
    1526:	e0 91 db 06 	lds	r30, 0x06DB	; 0x8006db <pxDelayedTaskList>
    152a:	f0 91 dc 06 	lds	r31, 0x06DC	; 0x8006dc <pxDelayedTaskList+0x1>
    152e:	05 80       	ldd	r0, Z+5	; 0x05
    1530:	f6 81       	ldd	r31, Z+6	; 0x06
    1532:	e0 2d       	mov	r30, r0
    1534:	c6 81       	ldd	r28, Z+6	; 0x06
    1536:	d7 81       	ldd	r29, Z+7	; 0x07
    1538:	8a 81       	ldd	r24, Y+2	; 0x02
    153a:	9b 81       	ldd	r25, Y+3	; 0x03
    153c:	e8 16       	cp	r14, r24
    153e:	f9 06       	cpc	r15, r25
    1540:	28 f4       	brcc	.+10     	; 0x154c <xTaskIncrementTick+0xce>
    1542:	90 93 bd 06 	sts	0x06BD, r25	; 0x8006bd <xNextTaskUnblockTime+0x1>
    1546:	80 93 bc 06 	sts	0x06BC, r24	; 0x8006bc <xNextTaskUnblockTime>
    154a:	2c c0       	rjmp	.+88     	; 0x15a4 <xTaskIncrementTick+0x126>
    154c:	8e 01       	movw	r16, r28
    154e:	0e 5f       	subi	r16, 0xFE	; 254
    1550:	1f 4f       	sbci	r17, 0xFF	; 255
    1552:	c8 01       	movw	r24, r16
    1554:	0e 94 91 04 	call	0x922	; 0x922 <uxListRemove>
    1558:	8c 89       	ldd	r24, Y+20	; 0x14
    155a:	9d 89       	ldd	r25, Y+21	; 0x15
    155c:	89 2b       	or	r24, r25
    155e:	21 f0       	breq	.+8      	; 0x1568 <xTaskIncrementTick+0xea>
    1560:	ce 01       	movw	r24, r28
    1562:	0c 96       	adiw	r24, 0x0c	; 12
    1564:	0e 94 91 04 	call	0x922	; 0x922 <uxListRemove>
    1568:	8e 89       	ldd	r24, Y+22	; 0x16
    156a:	90 91 c3 06 	lds	r25, 0x06C3	; 0x8006c3 <uxTopReadyPriority>
    156e:	98 17       	cp	r25, r24
    1570:	10 f4       	brcc	.+4      	; 0x1576 <xTaskIncrementTick+0xf8>
    1572:	80 93 c3 06 	sts	0x06C3, r24	; 0x8006c3 <uxTopReadyPriority>
    1576:	90 e0       	ldi	r25, 0x00	; 0
    1578:	9c 01       	movw	r18, r24
    157a:	22 0f       	add	r18, r18
    157c:	33 1f       	adc	r19, r19
    157e:	22 0f       	add	r18, r18
    1580:	33 1f       	adc	r19, r19
    1582:	22 0f       	add	r18, r18
    1584:	33 1f       	adc	r19, r19
    1586:	82 0f       	add	r24, r18
    1588:	93 1f       	adc	r25, r19
    158a:	b8 01       	movw	r22, r16
    158c:	81 51       	subi	r24, 0x11	; 17
    158e:	99 4f       	sbci	r25, 0xF9	; 249
    1590:	0e 94 3f 04 	call	0x87e	; 0x87e <vListInsertEnd>
    1594:	e0 91 db 06 	lds	r30, 0x06DB	; 0x8006db <pxDelayedTaskList>
    1598:	f0 91 dc 06 	lds	r31, 0x06DC	; 0x8006dc <pxDelayedTaskList+0x1>
    159c:	80 81       	ld	r24, Z
    159e:	81 11       	cpse	r24, r1
    15a0:	c2 cf       	rjmp	.-124    	; 0x1526 <xTaskIncrementTick+0xa8>
    15a2:	ba cf       	rjmp	.-140    	; 0x1518 <xTaskIncrementTick+0x9a>
    15a4:	80 91 c1 06 	lds	r24, 0x06C1	; 0x8006c1 <uxPendedTicks>
    15a8:	81 11       	cpse	r24, r1
    15aa:	0a c0       	rjmp	.+20     	; 0x15c0 <xTaskIncrementTick+0x142>
    15ac:	0e 94 6f 02 	call	0x4de	; 0x4de <vApplicationTickHook>
    15b0:	07 c0       	rjmp	.+14     	; 0x15c0 <xTaskIncrementTick+0x142>
    15b2:	80 91 c1 06 	lds	r24, 0x06C1	; 0x8006c1 <uxPendedTicks>
    15b6:	8f 5f       	subi	r24, 0xFF	; 255
    15b8:	80 93 c1 06 	sts	0x06C1, r24	; 0x8006c1 <uxPendedTicks>
    15bc:	0e 94 6f 02 	call	0x4de	; 0x4de <vApplicationTickHook>
    15c0:	80 e0       	ldi	r24, 0x00	; 0
    15c2:	df 91       	pop	r29
    15c4:	cf 91       	pop	r28
    15c6:	1f 91       	pop	r17
    15c8:	0f 91       	pop	r16
    15ca:	ff 90       	pop	r15
    15cc:	ef 90       	pop	r14
    15ce:	08 95       	ret

000015d0 <xTaskResumeAll>:
    15d0:	df 92       	push	r13
    15d2:	ef 92       	push	r14
    15d4:	ff 92       	push	r15
    15d6:	0f 93       	push	r16
    15d8:	1f 93       	push	r17
    15da:	cf 93       	push	r28
    15dc:	df 93       	push	r29
    15de:	0f b6       	in	r0, 0x3f	; 63
    15e0:	f8 94       	cli
    15e2:	0f 92       	push	r0
    15e4:	80 91 b9 06 	lds	r24, 0x06B9	; 0x8006b9 <uxSchedulerSuspended>
    15e8:	81 50       	subi	r24, 0x01	; 1
    15ea:	80 93 b9 06 	sts	0x06B9, r24	; 0x8006b9 <uxSchedulerSuspended>
    15ee:	80 91 b9 06 	lds	r24, 0x06B9	; 0x8006b9 <uxSchedulerSuspended>
    15f2:	81 11       	cpse	r24, r1
    15f4:	59 c0       	rjmp	.+178    	; 0x16a8 <xTaskResumeAll+0xd8>
    15f6:	80 91 c6 06 	lds	r24, 0x06C6	; 0x8006c6 <uxCurrentNumberOfTasks>
    15fa:	81 11       	cpse	r24, r1
    15fc:	33 c0       	rjmp	.+102    	; 0x1664 <xTaskResumeAll+0x94>
    15fe:	54 c0       	rjmp	.+168    	; 0x16a8 <xTaskResumeAll+0xd8>
    1600:	d7 01       	movw	r26, r14
    1602:	15 96       	adiw	r26, 0x05	; 5
    1604:	ed 91       	ld	r30, X+
    1606:	fc 91       	ld	r31, X
    1608:	16 97       	sbiw	r26, 0x06	; 6
    160a:	c6 81       	ldd	r28, Z+6	; 0x06
    160c:	d7 81       	ldd	r29, Z+7	; 0x07
    160e:	ce 01       	movw	r24, r28
    1610:	0c 96       	adiw	r24, 0x0c	; 12
    1612:	0e 94 91 04 	call	0x922	; 0x922 <uxListRemove>
    1616:	8e 01       	movw	r16, r28
    1618:	0e 5f       	subi	r16, 0xFE	; 254
    161a:	1f 4f       	sbci	r17, 0xFF	; 255
    161c:	c8 01       	movw	r24, r16
    161e:	0e 94 91 04 	call	0x922	; 0x922 <uxListRemove>
    1622:	8e 89       	ldd	r24, Y+22	; 0x16
    1624:	90 91 c3 06 	lds	r25, 0x06C3	; 0x8006c3 <uxTopReadyPriority>
    1628:	98 17       	cp	r25, r24
    162a:	10 f4       	brcc	.+4      	; 0x1630 <xTaskResumeAll+0x60>
    162c:	80 93 c3 06 	sts	0x06C3, r24	; 0x8006c3 <uxTopReadyPriority>
    1630:	90 e0       	ldi	r25, 0x00	; 0
    1632:	9c 01       	movw	r18, r24
    1634:	22 0f       	add	r18, r18
    1636:	33 1f       	adc	r19, r19
    1638:	22 0f       	add	r18, r18
    163a:	33 1f       	adc	r19, r19
    163c:	22 0f       	add	r18, r18
    163e:	33 1f       	adc	r19, r19
    1640:	82 0f       	add	r24, r18
    1642:	93 1f       	adc	r25, r19
    1644:	b8 01       	movw	r22, r16
    1646:	81 51       	subi	r24, 0x11	; 17
    1648:	99 4f       	sbci	r25, 0xF9	; 249
    164a:	0e 94 3f 04 	call	0x87e	; 0x87e <vListInsertEnd>
    164e:	e0 91 25 07 	lds	r30, 0x0725	; 0x800725 <pxCurrentTCB>
    1652:	f0 91 26 07 	lds	r31, 0x0726	; 0x800726 <pxCurrentTCB+0x1>
    1656:	9e 89       	ldd	r25, Y+22	; 0x16
    1658:	86 89       	ldd	r24, Z+22	; 0x16
    165a:	98 17       	cp	r25, r24
    165c:	68 f0       	brcs	.+26     	; 0x1678 <xTaskResumeAll+0xa8>
    165e:	d0 92 c0 06 	sts	0x06C0, r13	; 0x8006c0 <xYieldPending>
    1662:	0a c0       	rjmp	.+20     	; 0x1678 <xTaskResumeAll+0xa8>
    1664:	c0 e0       	ldi	r28, 0x00	; 0
    1666:	d0 e0       	ldi	r29, 0x00	; 0
    1668:	0f 2e       	mov	r0, r31
    166a:	f0 ed       	ldi	r31, 0xD0	; 208
    166c:	ef 2e       	mov	r14, r31
    166e:	f6 e0       	ldi	r31, 0x06	; 6
    1670:	ff 2e       	mov	r15, r31
    1672:	f0 2d       	mov	r31, r0
    1674:	dd 24       	eor	r13, r13
    1676:	d3 94       	inc	r13
    1678:	f7 01       	movw	r30, r14
    167a:	80 81       	ld	r24, Z
    167c:	81 11       	cpse	r24, r1
    167e:	c0 cf       	rjmp	.-128    	; 0x1600 <xTaskResumeAll+0x30>
    1680:	cd 2b       	or	r28, r29
    1682:	11 f0       	breq	.+4      	; 0x1688 <xTaskResumeAll+0xb8>
    1684:	0e 94 45 08 	call	0x108a	; 0x108a <prvResetNextTaskUnblockTime>
    1688:	c0 91 c1 06 	lds	r28, 0x06C1	; 0x8006c1 <uxPendedTicks>
    168c:	cc 23       	and	r28, r28
    168e:	51 f0       	breq	.+20     	; 0x16a4 <xTaskResumeAll+0xd4>
    1690:	d1 e0       	ldi	r29, 0x01	; 1
    1692:	0e 94 3f 0a 	call	0x147e	; 0x147e <xTaskIncrementTick>
    1696:	81 11       	cpse	r24, r1
    1698:	d0 93 c0 06 	sts	0x06C0, r29	; 0x8006c0 <xYieldPending>
    169c:	c1 50       	subi	r28, 0x01	; 1
    169e:	c9 f7       	brne	.-14     	; 0x1692 <xTaskResumeAll+0xc2>
    16a0:	10 92 c1 06 	sts	0x06C1, r1	; 0x8006c1 <uxPendedTicks>
    16a4:	80 91 c0 06 	lds	r24, 0x06C0	; 0x8006c0 <xYieldPending>
    16a8:	0f 90       	pop	r0
    16aa:	0f be       	out	0x3f, r0	; 63
    16ac:	80 e0       	ldi	r24, 0x00	; 0
    16ae:	df 91       	pop	r29
    16b0:	cf 91       	pop	r28
    16b2:	1f 91       	pop	r17
    16b4:	0f 91       	pop	r16
    16b6:	ff 90       	pop	r15
    16b8:	ef 90       	pop	r14
    16ba:	df 90       	pop	r13
    16bc:	08 95       	ret

000016be <vTaskDelay>:
    16be:	cf 93       	push	r28
    16c0:	df 93       	push	r29
    16c2:	ec 01       	movw	r28, r24
    16c4:	89 2b       	or	r24, r25
    16c6:	51 f0       	breq	.+20     	; 0x16dc <vTaskDelay+0x1e>
    16c8:	0e 94 39 0a 	call	0x1472	; 0x1472 <vTaskSuspendAll>
    16cc:	60 e0       	ldi	r22, 0x00	; 0
    16ce:	ce 01       	movw	r24, r28
    16d0:	0e 94 67 08 	call	0x10ce	; 0x10ce <prvAddCurrentTaskToDelayedList>
    16d4:	0e 94 e8 0a 	call	0x15d0	; 0x15d0 <xTaskResumeAll>
    16d8:	81 11       	cpse	r24, r1
    16da:	02 c0       	rjmp	.+4      	; 0x16e0 <vTaskDelay+0x22>
    16dc:	0e 94 59 05 	call	0xab2	; 0xab2 <vPortYield>
    16e0:	df 91       	pop	r29
    16e2:	cf 91       	pop	r28
    16e4:	08 95       	ret

000016e6 <vTaskSwitchContext>:
    16e6:	80 91 b9 06 	lds	r24, 0x06B9	; 0x8006b9 <uxSchedulerSuspended>
    16ea:	88 23       	and	r24, r24
    16ec:	21 f0       	breq	.+8      	; 0x16f6 <vTaskSwitchContext+0x10>
    16ee:	81 e0       	ldi	r24, 0x01	; 1
    16f0:	80 93 c0 06 	sts	0x06C0, r24	; 0x8006c0 <xYieldPending>
    16f4:	08 95       	ret
    16f6:	10 92 c0 06 	sts	0x06C0, r1	; 0x8006c0 <xYieldPending>
    16fa:	20 91 c3 06 	lds	r18, 0x06C3	; 0x8006c3 <uxTopReadyPriority>
    16fe:	82 2f       	mov	r24, r18
    1700:	90 e0       	ldi	r25, 0x00	; 0
    1702:	fc 01       	movw	r30, r24
    1704:	ee 0f       	add	r30, r30
    1706:	ff 1f       	adc	r31, r31
    1708:	ee 0f       	add	r30, r30
    170a:	ff 1f       	adc	r31, r31
    170c:	ee 0f       	add	r30, r30
    170e:	ff 1f       	adc	r31, r31
    1710:	e8 0f       	add	r30, r24
    1712:	f9 1f       	adc	r31, r25
    1714:	e1 51       	subi	r30, 0x11	; 17
    1716:	f9 4f       	sbci	r31, 0xF9	; 249
    1718:	30 81       	ld	r19, Z
    171a:	31 11       	cpse	r19, r1
    171c:	11 c0       	rjmp	.+34     	; 0x1740 <vTaskSwitchContext+0x5a>
    171e:	21 50       	subi	r18, 0x01	; 1
    1720:	82 2f       	mov	r24, r18
    1722:	90 e0       	ldi	r25, 0x00	; 0
    1724:	fc 01       	movw	r30, r24
    1726:	ee 0f       	add	r30, r30
    1728:	ff 1f       	adc	r31, r31
    172a:	ee 0f       	add	r30, r30
    172c:	ff 1f       	adc	r31, r31
    172e:	ee 0f       	add	r30, r30
    1730:	ff 1f       	adc	r31, r31
    1732:	e8 0f       	add	r30, r24
    1734:	f9 1f       	adc	r31, r25
    1736:	e1 51       	subi	r30, 0x11	; 17
    1738:	f9 4f       	sbci	r31, 0xF9	; 249
    173a:	30 81       	ld	r19, Z
    173c:	33 23       	and	r19, r19
    173e:	79 f3       	breq	.-34     	; 0x171e <vTaskSwitchContext+0x38>
    1740:	ac 01       	movw	r20, r24
    1742:	44 0f       	add	r20, r20
    1744:	55 1f       	adc	r21, r21
    1746:	44 0f       	add	r20, r20
    1748:	55 1f       	adc	r21, r21
    174a:	44 0f       	add	r20, r20
    174c:	55 1f       	adc	r21, r21
    174e:	48 0f       	add	r20, r24
    1750:	59 1f       	adc	r21, r25
    1752:	da 01       	movw	r26, r20
    1754:	a1 51       	subi	r26, 0x11	; 17
    1756:	b9 4f       	sbci	r27, 0xF9	; 249
    1758:	11 96       	adiw	r26, 0x01	; 1
    175a:	ed 91       	ld	r30, X+
    175c:	fc 91       	ld	r31, X
    175e:	12 97       	sbiw	r26, 0x02	; 2
    1760:	02 80       	ldd	r0, Z+2	; 0x02
    1762:	f3 81       	ldd	r31, Z+3	; 0x03
    1764:	e0 2d       	mov	r30, r0
    1766:	12 96       	adiw	r26, 0x02	; 2
    1768:	fc 93       	st	X, r31
    176a:	ee 93       	st	-X, r30
    176c:	11 97       	sbiw	r26, 0x01	; 1
    176e:	4e 50       	subi	r20, 0x0E	; 14
    1770:	59 4f       	sbci	r21, 0xF9	; 249
    1772:	e4 17       	cp	r30, r20
    1774:	f5 07       	cpc	r31, r21
    1776:	29 f4       	brne	.+10     	; 0x1782 <vTaskSwitchContext+0x9c>
    1778:	42 81       	ldd	r20, Z+2	; 0x02
    177a:	53 81       	ldd	r21, Z+3	; 0x03
    177c:	fd 01       	movw	r30, r26
    177e:	52 83       	std	Z+2, r21	; 0x02
    1780:	41 83       	std	Z+1, r20	; 0x01
    1782:	fc 01       	movw	r30, r24
    1784:	ee 0f       	add	r30, r30
    1786:	ff 1f       	adc	r31, r31
    1788:	ee 0f       	add	r30, r30
    178a:	ff 1f       	adc	r31, r31
    178c:	ee 0f       	add	r30, r30
    178e:	ff 1f       	adc	r31, r31
    1790:	8e 0f       	add	r24, r30
    1792:	9f 1f       	adc	r25, r31
    1794:	fc 01       	movw	r30, r24
    1796:	e1 51       	subi	r30, 0x11	; 17
    1798:	f9 4f       	sbci	r31, 0xF9	; 249
    179a:	01 80       	ldd	r0, Z+1	; 0x01
    179c:	f2 81       	ldd	r31, Z+2	; 0x02
    179e:	e0 2d       	mov	r30, r0
    17a0:	86 81       	ldd	r24, Z+6	; 0x06
    17a2:	97 81       	ldd	r25, Z+7	; 0x07
    17a4:	90 93 26 07 	sts	0x0726, r25	; 0x800726 <pxCurrentTCB+0x1>
    17a8:	80 93 25 07 	sts	0x0725, r24	; 0x800725 <pxCurrentTCB>
    17ac:	20 93 c3 06 	sts	0x06C3, r18	; 0x8006c3 <uxTopReadyPriority>
    17b0:	08 95       	ret

000017b2 <vTaskSuspend>:
    17b2:	0f 93       	push	r16
    17b4:	1f 93       	push	r17
    17b6:	cf 93       	push	r28
    17b8:	df 93       	push	r29
    17ba:	ec 01       	movw	r28, r24
    17bc:	0f b6       	in	r0, 0x3f	; 63
    17be:	f8 94       	cli
    17c0:	0f 92       	push	r0
    17c2:	89 2b       	or	r24, r25
    17c4:	21 f4       	brne	.+8      	; 0x17ce <vTaskSuspend+0x1c>
    17c6:	c0 91 25 07 	lds	r28, 0x0725	; 0x800725 <pxCurrentTCB>
    17ca:	d0 91 26 07 	lds	r29, 0x0726	; 0x800726 <pxCurrentTCB+0x1>
    17ce:	8e 01       	movw	r16, r28
    17d0:	0e 5f       	subi	r16, 0xFE	; 254
    17d2:	1f 4f       	sbci	r17, 0xFF	; 255
    17d4:	c8 01       	movw	r24, r16
    17d6:	0e 94 91 04 	call	0x922	; 0x922 <uxListRemove>
    17da:	8c 89       	ldd	r24, Y+20	; 0x14
    17dc:	9d 89       	ldd	r25, Y+21	; 0x15
    17de:	89 2b       	or	r24, r25
    17e0:	21 f0       	breq	.+8      	; 0x17ea <vTaskSuspend+0x38>
    17e2:	ce 01       	movw	r24, r28
    17e4:	0c 96       	adiw	r24, 0x0c	; 12
    17e6:	0e 94 91 04 	call	0x922	; 0x922 <uxListRemove>
    17ea:	b8 01       	movw	r22, r16
    17ec:	87 ec       	ldi	r24, 0xC7	; 199
    17ee:	96 e0       	ldi	r25, 0x06	; 6
    17f0:	0e 94 3f 04 	call	0x87e	; 0x87e <vListInsertEnd>
    17f4:	8b a9       	ldd	r24, Y+51	; 0x33
    17f6:	81 30       	cpi	r24, 0x01	; 1
    17f8:	09 f4       	brne	.+2      	; 0x17fc <vTaskSuspend+0x4a>
    17fa:	1b aa       	std	Y+51, r1	; 0x33
    17fc:	0f 90       	pop	r0
    17fe:	0f be       	out	0x3f, r0	; 63
    1800:	80 91 c2 06 	lds	r24, 0x06C2	; 0x8006c2 <xSchedulerRunning>
    1804:	88 23       	and	r24, r24
    1806:	39 f0       	breq	.+14     	; 0x1816 <vTaskSuspend+0x64>
    1808:	0f b6       	in	r0, 0x3f	; 63
    180a:	f8 94       	cli
    180c:	0f 92       	push	r0
    180e:	0e 94 45 08 	call	0x108a	; 0x108a <prvResetNextTaskUnblockTime>
    1812:	0f 90       	pop	r0
    1814:	0f be       	out	0x3f, r0	; 63
    1816:	80 91 25 07 	lds	r24, 0x0725	; 0x800725 <pxCurrentTCB>
    181a:	90 91 26 07 	lds	r25, 0x0726	; 0x800726 <pxCurrentTCB+0x1>
    181e:	c8 17       	cp	r28, r24
    1820:	d9 07       	cpc	r29, r25
    1822:	a1 f4       	brne	.+40     	; 0x184c <vTaskSuspend+0x9a>
    1824:	80 91 c2 06 	lds	r24, 0x06C2	; 0x8006c2 <xSchedulerRunning>
    1828:	88 23       	and	r24, r24
    182a:	19 f0       	breq	.+6      	; 0x1832 <vTaskSuspend+0x80>
    182c:	0e 94 59 05 	call	0xab2	; 0xab2 <vPortYield>
    1830:	0d c0       	rjmp	.+26     	; 0x184c <vTaskSuspend+0x9a>
    1832:	90 91 c7 06 	lds	r25, 0x06C7	; 0x8006c7 <xSuspendedTaskList>
    1836:	80 91 c6 06 	lds	r24, 0x06C6	; 0x8006c6 <uxCurrentNumberOfTasks>
    183a:	98 13       	cpse	r25, r24
    183c:	05 c0       	rjmp	.+10     	; 0x1848 <vTaskSuspend+0x96>
    183e:	10 92 26 07 	sts	0x0726, r1	; 0x800726 <pxCurrentTCB+0x1>
    1842:	10 92 25 07 	sts	0x0725, r1	; 0x800725 <pxCurrentTCB>
    1846:	02 c0       	rjmp	.+4      	; 0x184c <vTaskSuspend+0x9a>
    1848:	0e 94 73 0b 	call	0x16e6	; 0x16e6 <vTaskSwitchContext>
    184c:	df 91       	pop	r29
    184e:	cf 91       	pop	r28
    1850:	1f 91       	pop	r17
    1852:	0f 91       	pop	r16
    1854:	08 95       	ret

00001856 <vTaskPlaceOnEventList>:
    1856:	cf 93       	push	r28
    1858:	df 93       	push	r29
    185a:	eb 01       	movw	r28, r22
    185c:	60 91 25 07 	lds	r22, 0x0725	; 0x800725 <pxCurrentTCB>
    1860:	70 91 26 07 	lds	r23, 0x0726	; 0x800726 <pxCurrentTCB+0x1>
    1864:	64 5f       	subi	r22, 0xF4	; 244
    1866:	7f 4f       	sbci	r23, 0xFF	; 255
    1868:	0e 94 60 04 	call	0x8c0	; 0x8c0 <vListInsert>
    186c:	61 e0       	ldi	r22, 0x01	; 1
    186e:	ce 01       	movw	r24, r28
    1870:	0e 94 67 08 	call	0x10ce	; 0x10ce <prvAddCurrentTaskToDelayedList>
    1874:	df 91       	pop	r29
    1876:	cf 91       	pop	r28
    1878:	08 95       	ret

0000187a <xTaskRemoveFromEventList>:
    187a:	0f 93       	push	r16
    187c:	1f 93       	push	r17
    187e:	cf 93       	push	r28
    1880:	df 93       	push	r29
    1882:	dc 01       	movw	r26, r24
    1884:	15 96       	adiw	r26, 0x05	; 5
    1886:	ed 91       	ld	r30, X+
    1888:	fc 91       	ld	r31, X
    188a:	16 97       	sbiw	r26, 0x06	; 6
    188c:	c6 81       	ldd	r28, Z+6	; 0x06
    188e:	d7 81       	ldd	r29, Z+7	; 0x07
    1890:	8e 01       	movw	r16, r28
    1892:	04 5f       	subi	r16, 0xF4	; 244
    1894:	1f 4f       	sbci	r17, 0xFF	; 255
    1896:	c8 01       	movw	r24, r16
    1898:	0e 94 91 04 	call	0x922	; 0x922 <uxListRemove>
    189c:	80 91 b9 06 	lds	r24, 0x06B9	; 0x8006b9 <uxSchedulerSuspended>
    18a0:	81 11       	cpse	r24, r1
    18a2:	1c c0       	rjmp	.+56     	; 0x18dc <xTaskRemoveFromEventList+0x62>
    18a4:	0a 50       	subi	r16, 0x0A	; 10
    18a6:	11 09       	sbc	r17, r1
    18a8:	c8 01       	movw	r24, r16
    18aa:	0e 94 91 04 	call	0x922	; 0x922 <uxListRemove>
    18ae:	8e 89       	ldd	r24, Y+22	; 0x16
    18b0:	90 91 c3 06 	lds	r25, 0x06C3	; 0x8006c3 <uxTopReadyPriority>
    18b4:	98 17       	cp	r25, r24
    18b6:	10 f4       	brcc	.+4      	; 0x18bc <xTaskRemoveFromEventList+0x42>
    18b8:	80 93 c3 06 	sts	0x06C3, r24	; 0x8006c3 <uxTopReadyPriority>
    18bc:	90 e0       	ldi	r25, 0x00	; 0
    18be:	9c 01       	movw	r18, r24
    18c0:	22 0f       	add	r18, r18
    18c2:	33 1f       	adc	r19, r19
    18c4:	22 0f       	add	r18, r18
    18c6:	33 1f       	adc	r19, r19
    18c8:	22 0f       	add	r18, r18
    18ca:	33 1f       	adc	r19, r19
    18cc:	82 0f       	add	r24, r18
    18ce:	93 1f       	adc	r25, r19
    18d0:	b8 01       	movw	r22, r16
    18d2:	81 51       	subi	r24, 0x11	; 17
    18d4:	99 4f       	sbci	r25, 0xF9	; 249
    18d6:	0e 94 3f 04 	call	0x87e	; 0x87e <vListInsertEnd>
    18da:	05 c0       	rjmp	.+10     	; 0x18e6 <xTaskRemoveFromEventList+0x6c>
    18dc:	b8 01       	movw	r22, r16
    18de:	80 ed       	ldi	r24, 0xD0	; 208
    18e0:	96 e0       	ldi	r25, 0x06	; 6
    18e2:	0e 94 3f 04 	call	0x87e	; 0x87e <vListInsertEnd>
    18e6:	e0 91 25 07 	lds	r30, 0x0725	; 0x800725 <pxCurrentTCB>
    18ea:	f0 91 26 07 	lds	r31, 0x0726	; 0x800726 <pxCurrentTCB+0x1>
    18ee:	9e 89       	ldd	r25, Y+22	; 0x16
    18f0:	86 89       	ldd	r24, Z+22	; 0x16
    18f2:	89 17       	cp	r24, r25
    18f4:	20 f4       	brcc	.+8      	; 0x18fe <xTaskRemoveFromEventList+0x84>
    18f6:	81 e0       	ldi	r24, 0x01	; 1
    18f8:	80 93 c0 06 	sts	0x06C0, r24	; 0x8006c0 <xYieldPending>
    18fc:	01 c0       	rjmp	.+2      	; 0x1900 <xTaskRemoveFromEventList+0x86>
    18fe:	80 e0       	ldi	r24, 0x00	; 0
    1900:	df 91       	pop	r29
    1902:	cf 91       	pop	r28
    1904:	1f 91       	pop	r17
    1906:	0f 91       	pop	r16
    1908:	08 95       	ret

0000190a <vTaskInternalSetTimeOutState>:
    190a:	20 91 bf 06 	lds	r18, 0x06BF	; 0x8006bf <xNumOfOverflows>
    190e:	fc 01       	movw	r30, r24
    1910:	20 83       	st	Z, r18
    1912:	20 91 c4 06 	lds	r18, 0x06C4	; 0x8006c4 <xTickCount>
    1916:	30 91 c5 06 	lds	r19, 0x06C5	; 0x8006c5 <xTickCount+0x1>
    191a:	32 83       	std	Z+2, r19	; 0x02
    191c:	21 83       	std	Z+1, r18	; 0x01
    191e:	08 95       	ret

00001920 <xTaskCheckForTimeOut>:
    1920:	cf 93       	push	r28
    1922:	df 93       	push	r29
    1924:	0f b6       	in	r0, 0x3f	; 63
    1926:	f8 94       	cli
    1928:	0f 92       	push	r0
    192a:	20 91 c4 06 	lds	r18, 0x06C4	; 0x8006c4 <xTickCount>
    192e:	30 91 c5 06 	lds	r19, 0x06C5	; 0x8006c5 <xTickCount+0x1>
    1932:	db 01       	movw	r26, r22
    1934:	4d 91       	ld	r20, X+
    1936:	5c 91       	ld	r21, X
    1938:	4f 3f       	cpi	r20, 0xFF	; 255
    193a:	bf ef       	ldi	r27, 0xFF	; 255
    193c:	5b 07       	cpc	r21, r27
    193e:	f1 f0       	breq	.+60     	; 0x197c <xTaskCheckForTimeOut+0x5c>
    1940:	ec 01       	movw	r28, r24
    1942:	e9 81       	ldd	r30, Y+1	; 0x01
    1944:	fa 81       	ldd	r31, Y+2	; 0x02
    1946:	a0 91 bf 06 	lds	r26, 0x06BF	; 0x8006bf <xNumOfOverflows>
    194a:	b8 81       	ld	r27, Y
    194c:	ba 17       	cp	r27, r26
    194e:	19 f0       	breq	.+6      	; 0x1956 <xTaskCheckForTimeOut+0x36>
    1950:	2e 17       	cp	r18, r30
    1952:	3f 07       	cpc	r19, r31
    1954:	a8 f4       	brcc	.+42     	; 0x1980 <xTaskCheckForTimeOut+0x60>
    1956:	2e 1b       	sub	r18, r30
    1958:	3f 0b       	sbc	r19, r31
    195a:	24 17       	cp	r18, r20
    195c:	35 07       	cpc	r19, r21
    195e:	48 f4       	brcc	.+18     	; 0x1972 <xTaskCheckForTimeOut+0x52>
    1960:	fb 01       	movw	r30, r22
    1962:	42 1b       	sub	r20, r18
    1964:	53 0b       	sbc	r21, r19
    1966:	51 83       	std	Z+1, r21	; 0x01
    1968:	40 83       	st	Z, r20
    196a:	0e 94 85 0c 	call	0x190a	; 0x190a <vTaskInternalSetTimeOutState>
    196e:	80 e0       	ldi	r24, 0x00	; 0
    1970:	08 c0       	rjmp	.+16     	; 0x1982 <xTaskCheckForTimeOut+0x62>
    1972:	fb 01       	movw	r30, r22
    1974:	11 82       	std	Z+1, r1	; 0x01
    1976:	10 82       	st	Z, r1
    1978:	81 e0       	ldi	r24, 0x01	; 1
    197a:	03 c0       	rjmp	.+6      	; 0x1982 <xTaskCheckForTimeOut+0x62>
    197c:	80 e0       	ldi	r24, 0x00	; 0
    197e:	01 c0       	rjmp	.+2      	; 0x1982 <xTaskCheckForTimeOut+0x62>
    1980:	81 e0       	ldi	r24, 0x01	; 1
    1982:	0f 90       	pop	r0
    1984:	0f be       	out	0x3f, r0	; 63
    1986:	df 91       	pop	r29
    1988:	cf 91       	pop	r28
    198a:	08 95       	ret

0000198c <vTaskMissedYield>:
    198c:	81 e0       	ldi	r24, 0x01	; 1
    198e:	80 93 c0 06 	sts	0x06C0, r24	; 0x8006c0 <xYieldPending>
    1992:	08 95       	ret

00001994 <xTaskPriorityDisinherit>:
/*-----------------------------------------------------------*/

#if ( configUSE_MUTEXES == 1 )

	BaseType_t xTaskPriorityDisinherit( TaskHandle_t const pxMutexHolder )
	{
    1994:	0f 93       	push	r16
    1996:	1f 93       	push	r17
    1998:	cf 93       	push	r28
    199a:	df 93       	push	r29
    199c:	fc 01       	movw	r30, r24
	TCB_t * const pxTCB = pxMutexHolder;
	BaseType_t xReturn = pdFALSE;

		if( pxMutexHolder != NULL )
    199e:	89 2b       	or	r24, r25
    19a0:	79 f1       	breq	.+94     	; 0x1a00 <xTaskPriorityDisinherit+0x6c>
			If the mutex is held by a task then it cannot be given from an
			interrupt, and if a mutex is given by the holding task then it must
			be the running state task. */
			configASSERT( pxTCB == pxCurrentTCB );
			configASSERT( pxTCB->uxMutexesHeld );
			( pxTCB->uxMutexesHeld )--;
    19a2:	86 a5       	ldd	r24, Z+46	; 0x2e
    19a4:	81 50       	subi	r24, 0x01	; 1
    19a6:	86 a7       	std	Z+46, r24	; 0x2e

			/* Has the holder of the mutex inherited the priority of another
			task? */
			if( pxTCB->uxPriority != pxTCB->uxBasePriority )
    19a8:	26 89       	ldd	r18, Z+22	; 0x16
    19aa:	95 a5       	ldd	r25, Z+45	; 0x2d
    19ac:	29 17       	cp	r18, r25
    19ae:	51 f1       	breq	.+84     	; 0x1a04 <xTaskPriorityDisinherit+0x70>
			{
				/* Only disinherit if no other mutexes are held. */
				if( pxTCB->uxMutexesHeld == ( UBaseType_t ) 0 )
    19b0:	81 11       	cpse	r24, r1
    19b2:	2a c0       	rjmp	.+84     	; 0x1a08 <xTaskPriorityDisinherit+0x74>
    19b4:	ef 01       	movw	r28, r30
					/* A task can only have an inherited priority if it holds
					the mutex.  If the mutex is held by a task then it cannot be
					given from an interrupt, and if a mutex is given by the
					holding task then it must be the running state task.  Remove
					the holding task from the ready list. */
					if( uxListRemove( &( pxTCB->xStateListItem ) ) == ( UBaseType_t ) 0 )
    19b6:	8f 01       	movw	r16, r30
    19b8:	0e 5f       	subi	r16, 0xFE	; 254
    19ba:	1f 4f       	sbci	r17, 0xFF	; 255
    19bc:	c8 01       	movw	r24, r16
    19be:	0e 94 91 04 	call	0x922	; 0x922 <uxListRemove>
					}

					/* Disinherit the priority before adding the task into the
					new	ready list. */
					traceTASK_PRIORITY_DISINHERIT( pxTCB, pxTCB->uxBasePriority );
					pxTCB->uxPriority = pxTCB->uxBasePriority;
    19c2:	8d a5       	ldd	r24, Y+45	; 0x2d
    19c4:	8e 8b       	std	Y+22, r24	; 0x16

					/* Reset the event list item value.  It cannot be in use for
					any other purpose if this task is running, and it must be
					running to give back the mutex. */
					listSET_LIST_ITEM_VALUE( &( pxTCB->xEventListItem ), ( TickType_t ) configMAX_PRIORITIES - ( TickType_t ) pxTCB->uxPriority ); /*lint !e961 MISRA exception as the casts are only redundant for some ports. */
    19c6:	26 e0       	ldi	r18, 0x06	; 6
    19c8:	30 e0       	ldi	r19, 0x00	; 0
    19ca:	28 1b       	sub	r18, r24
    19cc:	31 09       	sbc	r19, r1
    19ce:	3d 87       	std	Y+13, r19	; 0x0d
    19d0:	2c 87       	std	Y+12, r18	; 0x0c
					prvAddTaskToReadyList( pxTCB );
    19d2:	90 91 c3 06 	lds	r25, 0x06C3	; 0x8006c3 <uxTopReadyPriority>
    19d6:	98 17       	cp	r25, r24
    19d8:	10 f4       	brcc	.+4      	; 0x19de <xTaskPriorityDisinherit+0x4a>
    19da:	80 93 c3 06 	sts	0x06C3, r24	; 0x8006c3 <uxTopReadyPriority>
    19de:	90 e0       	ldi	r25, 0x00	; 0
    19e0:	9c 01       	movw	r18, r24
    19e2:	22 0f       	add	r18, r18
    19e4:	33 1f       	adc	r19, r19
    19e6:	22 0f       	add	r18, r18
    19e8:	33 1f       	adc	r19, r19
    19ea:	22 0f       	add	r18, r18
    19ec:	33 1f       	adc	r19, r19
    19ee:	82 0f       	add	r24, r18
    19f0:	93 1f       	adc	r25, r19
    19f2:	b8 01       	movw	r22, r16
    19f4:	81 51       	subi	r24, 0x11	; 17
    19f6:	99 4f       	sbci	r25, 0xF9	; 249
    19f8:	0e 94 3f 04 	call	0x87e	; 0x87e <vListInsertEnd>
					in an order different to that in which they were taken.
					If a context switch did not occur when the first mutex was
					returned, even if a task was waiting on it, then a context
					switch should occur when the last mutex is returned whether
					a task is waiting on it or not. */
					xReturn = pdTRUE;
    19fc:	81 e0       	ldi	r24, 0x01	; 1
    19fe:	05 c0       	rjmp	.+10     	; 0x1a0a <xTaskPriorityDisinherit+0x76>
#if ( configUSE_MUTEXES == 1 )

	BaseType_t xTaskPriorityDisinherit( TaskHandle_t const pxMutexHolder )
	{
	TCB_t * const pxTCB = pxMutexHolder;
	BaseType_t xReturn = pdFALSE;
    1a00:	80 e0       	ldi	r24, 0x00	; 0
    1a02:	03 c0       	rjmp	.+6      	; 0x1a0a <xTaskPriorityDisinherit+0x76>
    1a04:	80 e0       	ldi	r24, 0x00	; 0
    1a06:	01 c0       	rjmp	.+2      	; 0x1a0a <xTaskPriorityDisinherit+0x76>
    1a08:	80 e0       	ldi	r24, 0x00	; 0
		{
			mtCOVERAGE_TEST_MARKER();
		}

		return xReturn;
	}
    1a0a:	df 91       	pop	r29
    1a0c:	cf 91       	pop	r28
    1a0e:	1f 91       	pop	r17
    1a10:	0f 91       	pop	r16
    1a12:	08 95       	ret

00001a14 <main>:
#include "User_stroy_1.h"
#include "led.h"


int main(void)
{
    1a14:	cf 93       	push	r28
    1a16:	df 93       	push	r29
    1a18:	00 d0       	rcall	.+0      	; 0x1a1a <main+0x6>
    1a1a:	00 d0       	rcall	.+0      	; 0x1a1c <main+0x8>
    1a1c:	cd b7       	in	r28, 0x3d	; 61
    1a1e:	de b7       	in	r29, 0x3e	; 62
    Leds_Init();
    1a20:	0e 94 e1 03 	call	0x7c2	; 0x7c2 <Leds_Init>
	 //);
	 uint8 arr[REQ2_TASKS_COUNTS];
	 
	 
	//req1_TasksCreation(arr);
	if( req2_tasksCreation(arr) == REQ2_TASKS_SUCCFULLY_CREATED)
    1a24:	ce 01       	movw	r24, r28
    1a26:	01 96       	adiw	r24, 0x01	; 1
    1a28:	0e 94 ea 01 	call	0x3d4	; 0x3d4 <req2_tasksCreation>
    1a2c:	81 30       	cpi	r24, 0x01	; 1
    1a2e:	11 f4       	brne	.+4      	; 0x1a34 <main+0x20>
	{
		//Leds_On(LED3);
	 vTaskStartScheduler();
    1a30:	0e 94 0f 0a 	call	0x141e	; 0x141e <vTaskStartScheduler>
    1a34:	ff cf       	rjmp	.-2      	; 0x1a34 <main+0x20>

00001a36 <Gpio_PinDirection>:
			/*      clear location            ,set value        */
			OUT_C = ( OUT_C & (~pins) ) | ( value & pins )   ;
			break;
		case PORT_D :
			/*      clear location            ,set value        */
			OUT_D = ( OUT_D & (~pins) ) | ( value & pins )    ;
    1a36:	81 30       	cpi	r24, 0x01	; 1
    1a38:	89 f0       	breq	.+34     	; 0x1a5c <Gpio_PinDirection+0x26>
    1a3a:	28 f0       	brcs	.+10     	; 0x1a46 <Gpio_PinDirection+0x10>
    1a3c:	82 30       	cpi	r24, 0x02	; 2
    1a3e:	c9 f0       	breq	.+50     	; 0x1a72 <Gpio_PinDirection+0x3c>
    1a40:	83 30       	cpi	r24, 0x03	; 3
    1a42:	11 f1       	breq	.+68     	; 0x1a88 <Gpio_PinDirection+0x52>
    1a44:	08 95       	ret
    1a46:	41 30       	cpi	r20, 0x01	; 1
    1a48:	21 f4       	brne	.+8      	; 0x1a52 <Gpio_PinDirection+0x1c>
    1a4a:	8a b3       	in	r24, 0x1a	; 26
    1a4c:	68 2b       	or	r22, r24
    1a4e:	6a bb       	out	0x1a, r22	; 26
    1a50:	08 95       	ret
    1a52:	8a b3       	in	r24, 0x1a	; 26
    1a54:	60 95       	com	r22
    1a56:	68 23       	and	r22, r24
    1a58:	6a bb       	out	0x1a, r22	; 26
    1a5a:	08 95       	ret
    1a5c:	41 30       	cpi	r20, 0x01	; 1
    1a5e:	21 f4       	brne	.+8      	; 0x1a68 <Gpio_PinDirection+0x32>
    1a60:	87 b3       	in	r24, 0x17	; 23
    1a62:	68 2b       	or	r22, r24
    1a64:	67 bb       	out	0x17, r22	; 23
    1a66:	08 95       	ret
    1a68:	87 b3       	in	r24, 0x17	; 23
    1a6a:	60 95       	com	r22
    1a6c:	68 23       	and	r22, r24
    1a6e:	67 bb       	out	0x17, r22	; 23
    1a70:	08 95       	ret
    1a72:	41 30       	cpi	r20, 0x01	; 1
    1a74:	21 f4       	brne	.+8      	; 0x1a7e <Gpio_PinDirection+0x48>
    1a76:	84 b3       	in	r24, 0x14	; 20
    1a78:	68 2b       	or	r22, r24
    1a7a:	64 bb       	out	0x14, r22	; 20
    1a7c:	08 95       	ret
    1a7e:	84 b3       	in	r24, 0x14	; 20
    1a80:	60 95       	com	r22
    1a82:	68 23       	and	r22, r24
    1a84:	64 bb       	out	0x14, r22	; 20
    1a86:	08 95       	ret
    1a88:	41 30       	cpi	r20, 0x01	; 1
    1a8a:	21 f4       	brne	.+8      	; 0x1a94 <Gpio_PinDirection+0x5e>
    1a8c:	81 b3       	in	r24, 0x11	; 17
    1a8e:	68 2b       	or	r22, r24
    1a90:	61 bb       	out	0x11, r22	; 17
    1a92:	08 95       	ret
    1a94:	81 b3       	in	r24, 0x11	; 17
    1a96:	60 95       	com	r22
    1a98:	68 23       	and	r22, r24
    1a9a:	61 bb       	out	0x11, r22	; 17
    1a9c:	08 95       	ret

00001a9e <Gpio_PinWrite_Same_Value>:
    1a9e:	81 30       	cpi	r24, 0x01	; 1
    1aa0:	81 f0       	breq	.+32     	; 0x1ac2 <Gpio_PinWrite_Same_Value+0x24>
    1aa2:	28 f0       	brcs	.+10     	; 0x1aae <Gpio_PinWrite_Same_Value+0x10>
    1aa4:	82 30       	cpi	r24, 0x02	; 2
    1aa6:	b9 f0       	breq	.+46     	; 0x1ad6 <Gpio_PinWrite_Same_Value+0x38>
    1aa8:	83 30       	cpi	r24, 0x03	; 3
    1aaa:	f9 f0       	breq	.+62     	; 0x1aea <Gpio_PinWrite_Same_Value+0x4c>
    1aac:	08 95       	ret
    1aae:	8b b3       	in	r24, 0x1b	; 27
    1ab0:	96 2f       	mov	r25, r22
    1ab2:	60 95       	com	r22
    1ab4:	68 23       	and	r22, r24
    1ab6:	41 30       	cpi	r20, 0x01	; 1
    1ab8:	09 f0       	breq	.+2      	; 0x1abc <Gpio_PinWrite_Same_Value+0x1e>
    1aba:	90 e0       	ldi	r25, 0x00	; 0
    1abc:	69 2b       	or	r22, r25
    1abe:	6b bb       	out	0x1b, r22	; 27
    1ac0:	08 95       	ret
    1ac2:	88 b3       	in	r24, 0x18	; 24
    1ac4:	96 2f       	mov	r25, r22
    1ac6:	60 95       	com	r22
    1ac8:	68 23       	and	r22, r24
    1aca:	41 30       	cpi	r20, 0x01	; 1
    1acc:	09 f0       	breq	.+2      	; 0x1ad0 <Gpio_PinWrite_Same_Value+0x32>
    1ace:	90 e0       	ldi	r25, 0x00	; 0
    1ad0:	69 2b       	or	r22, r25
    1ad2:	68 bb       	out	0x18, r22	; 24
    1ad4:	08 95       	ret
    1ad6:	85 b3       	in	r24, 0x15	; 21
    1ad8:	96 2f       	mov	r25, r22
    1ada:	60 95       	com	r22
    1adc:	68 23       	and	r22, r24
    1ade:	41 30       	cpi	r20, 0x01	; 1
    1ae0:	09 f0       	breq	.+2      	; 0x1ae4 <Gpio_PinWrite_Same_Value+0x46>
    1ae2:	90 e0       	ldi	r25, 0x00	; 0
    1ae4:	69 2b       	or	r22, r25
    1ae6:	65 bb       	out	0x15, r22	; 21
    1ae8:	08 95       	ret
    1aea:	82 b3       	in	r24, 0x12	; 18
    1aec:	96 2f       	mov	r25, r22
    1aee:	60 95       	com	r22
    1af0:	68 23       	and	r22, r24
    1af2:	41 30       	cpi	r20, 0x01	; 1
    1af4:	09 f0       	breq	.+2      	; 0x1af8 <Gpio_PinWrite_Same_Value+0x5a>
    1af6:	90 e0       	ldi	r25, 0x00	; 0
    1af8:	69 2b       	or	r22, r25
    1afa:	62 bb       	out	0x12, r22	; 18
    1afc:	08 95       	ret

00001afe <Gpio_PinToggle>:
*
*   @return  void
****************************************************************************/
void Gpio_PinToggle(uint8 port, uint8 pins)
{
	switch(port)
    1afe:	81 30       	cpi	r24, 0x01	; 1
    1b00:	51 f0       	breq	.+20     	; 0x1b16 <Gpio_PinToggle+0x18>
    1b02:	28 f0       	brcs	.+10     	; 0x1b0e <Gpio_PinToggle+0x10>
    1b04:	82 30       	cpi	r24, 0x02	; 2
    1b06:	59 f0       	breq	.+22     	; 0x1b1e <Gpio_PinToggle+0x20>
    1b08:	83 30       	cpi	r24, 0x03	; 3
    1b0a:	69 f0       	breq	.+26     	; 0x1b26 <Gpio_PinToggle+0x28>
    1b0c:	08 95       	ret
	{
		case PORT_A :
			OUT_A ^=pins;
    1b0e:	8b b3       	in	r24, 0x1b	; 27
    1b10:	68 27       	eor	r22, r24
    1b12:	6b bb       	out	0x1b, r22	; 27
			break;
    1b14:	08 95       	ret
		case PORT_B :
			OUT_B ^=pins;
    1b16:	88 b3       	in	r24, 0x18	; 24
    1b18:	68 27       	eor	r22, r24
    1b1a:	68 bb       	out	0x18, r22	; 24
		break;
    1b1c:	08 95       	ret
		case PORT_C :
			OUT_C ^=pins;
    1b1e:	85 b3       	in	r24, 0x15	; 21
    1b20:	68 27       	eor	r22, r24
    1b22:	65 bb       	out	0x15, r22	; 21
			break;
    1b24:	08 95       	ret
		case PORT_D :
			OUT_D ^=pins;
    1b26:	82 b3       	in	r24, 0x12	; 18
    1b28:	68 27       	eor	r22, r24
    1b2a:	62 bb       	out	0x12, r22	; 18
    1b2c:	08 95       	ret

00001b2e <Gpio_PinRead>:
*   @return  uint8
****************************************************************************/
uint8 Gpio_PinRead(uint8 port, uint8 pin)
{
	
	switch(port)
    1b2e:	81 30       	cpi	r24, 0x01	; 1
    1b30:	79 f0       	breq	.+30     	; 0x1b50 <Gpio_PinRead+0x22>
    1b32:	28 f0       	brcs	.+10     	; 0x1b3e <Gpio_PinRead+0x10>
    1b34:	82 30       	cpi	r24, 0x02	; 2
    1b36:	a9 f0       	breq	.+42     	; 0x1b62 <Gpio_PinRead+0x34>
    1b38:	83 30       	cpi	r24, 0x03	; 3
    1b3a:	e1 f0       	breq	.+56     	; 0x1b74 <Gpio_PinRead+0x46>
    1b3c:	24 c0       	rjmp	.+72     	; 0x1b86 <Gpio_PinRead+0x58>
	{
		case PORT_A :
			return  ( ( IN_A & (1<<pin) ) !=0  ? HIGH :LOW) ;
    1b3e:	89 b3       	in	r24, 0x19	; 25
    1b40:	90 e0       	ldi	r25, 0x00	; 0
    1b42:	02 c0       	rjmp	.+4      	; 0x1b48 <Gpio_PinRead+0x1a>
    1b44:	95 95       	asr	r25
    1b46:	87 95       	ror	r24
    1b48:	6a 95       	dec	r22
    1b4a:	e2 f7       	brpl	.-8      	; 0x1b44 <Gpio_PinRead+0x16>
    1b4c:	81 70       	andi	r24, 0x01	; 1
    1b4e:	08 95       	ret
		case PORT_B :
			return ( ( IN_B & (1<<pin) ) !=0 ? HIGH :LOW) ;
    1b50:	86 b3       	in	r24, 0x16	; 22
    1b52:	90 e0       	ldi	r25, 0x00	; 0
    1b54:	02 c0       	rjmp	.+4      	; 0x1b5a <Gpio_PinRead+0x2c>
    1b56:	95 95       	asr	r25
    1b58:	87 95       	ror	r24
    1b5a:	6a 95       	dec	r22
    1b5c:	e2 f7       	brpl	.-8      	; 0x1b56 <Gpio_PinRead+0x28>
    1b5e:	81 70       	andi	r24, 0x01	; 1
    1b60:	08 95       	ret
		case PORT_C :
			return ( ( IN_C & (1<<pin) ) !=0 ? HIGH :LOW) ;
    1b62:	83 b3       	in	r24, 0x13	; 19
    1b64:	90 e0       	ldi	r25, 0x00	; 0
    1b66:	02 c0       	rjmp	.+4      	; 0x1b6c <Gpio_PinRead+0x3e>
    1b68:	95 95       	asr	r25
    1b6a:	87 95       	ror	r24
    1b6c:	6a 95       	dec	r22
    1b6e:	e2 f7       	brpl	.-8      	; 0x1b68 <Gpio_PinRead+0x3a>
    1b70:	81 70       	andi	r24, 0x01	; 1
    1b72:	08 95       	ret
		case PORT_D :
			return ( ( IN_D & (1<<pin) ) !=0 ? HIGH :LOW) ;
    1b74:	80 b3       	in	r24, 0x10	; 16
    1b76:	90 e0       	ldi	r25, 0x00	; 0
    1b78:	02 c0       	rjmp	.+4      	; 0x1b7e <Gpio_PinRead+0x50>
    1b7a:	95 95       	asr	r25
    1b7c:	87 95       	ror	r24
    1b7e:	6a 95       	dec	r22
    1b80:	e2 f7       	brpl	.-8      	; 0x1b7a <Gpio_PinRead+0x4c>
    1b82:	81 70       	andi	r24, 0x01	; 1
    1b84:	08 95       	ret
		default:
			/*           error option                    */
			return NOT_OK;
    1b86:	81 e0       	ldi	r24, 0x01	; 1
	}
	
}
    1b88:	08 95       	ret

00001b8a <Gpio_UpperNibbleDirection>:
*
*   @return  void
****************************************************************************/
void Gpio_UpperNibbleDirection(uint8 port, uint8 direction)
{
	switch(port)
    1b8a:	81 30       	cpi	r24, 0x01	; 1
    1b8c:	81 f0       	breq	.+32     	; 0x1bae <Gpio_UpperNibbleDirection+0x24>
    1b8e:	28 f0       	brcs	.+10     	; 0x1b9a <Gpio_UpperNibbleDirection+0x10>
    1b90:	82 30       	cpi	r24, 0x02	; 2
    1b92:	b9 f0       	breq	.+46     	; 0x1bc2 <Gpio_UpperNibbleDirection+0x38>
    1b94:	83 30       	cpi	r24, 0x03	; 3
    1b96:	f9 f0       	breq	.+62     	; 0x1bd6 <Gpio_UpperNibbleDirection+0x4c>
    1b98:	08 95       	ret
	{
		case PORT_A :
			(direction == OUTPUT) ? (DIR_A |=0xF0) : (DIR_A &=0x0F);
    1b9a:	61 30       	cpi	r22, 0x01	; 1
    1b9c:	21 f4       	brne	.+8      	; 0x1ba6 <Gpio_UpperNibbleDirection+0x1c>
    1b9e:	8a b3       	in	r24, 0x1a	; 26
    1ba0:	80 6f       	ori	r24, 0xF0	; 240
    1ba2:	8a bb       	out	0x1a, r24	; 26
    1ba4:	08 95       	ret
    1ba6:	8a b3       	in	r24, 0x1a	; 26
    1ba8:	8f 70       	andi	r24, 0x0F	; 15
    1baa:	8a bb       	out	0x1a, r24	; 26
    1bac:	08 95       	ret
			break;
		case PORT_B :
			(direction == OUTPUT) ? (DIR_B |=0xF0) : (DIR_B &=0x0F);
    1bae:	61 30       	cpi	r22, 0x01	; 1
    1bb0:	21 f4       	brne	.+8      	; 0x1bba <Gpio_UpperNibbleDirection+0x30>
    1bb2:	87 b3       	in	r24, 0x17	; 23
    1bb4:	80 6f       	ori	r24, 0xF0	; 240
    1bb6:	87 bb       	out	0x17, r24	; 23
    1bb8:	08 95       	ret
    1bba:	87 b3       	in	r24, 0x17	; 23
    1bbc:	8f 70       	andi	r24, 0x0F	; 15
    1bbe:	87 bb       	out	0x17, r24	; 23
    1bc0:	08 95       	ret
			break;
		case PORT_C :
			(direction == OUTPUT) ? (DIR_C |=0xF0) : (DIR_C &=0x0F);
    1bc2:	61 30       	cpi	r22, 0x01	; 1
    1bc4:	21 f4       	brne	.+8      	; 0x1bce <Gpio_UpperNibbleDirection+0x44>
    1bc6:	84 b3       	in	r24, 0x14	; 20
    1bc8:	80 6f       	ori	r24, 0xF0	; 240
    1bca:	84 bb       	out	0x14, r24	; 20
    1bcc:	08 95       	ret
    1bce:	84 b3       	in	r24, 0x14	; 20
    1bd0:	8f 70       	andi	r24, 0x0F	; 15
    1bd2:	84 bb       	out	0x14, r24	; 20
    1bd4:	08 95       	ret
			break;
		case PORT_D :
			(direction == OUTPUT) ? (DIR_D |=0xF0) : (DIR_D &=0x0F);
    1bd6:	61 30       	cpi	r22, 0x01	; 1
    1bd8:	21 f4       	brne	.+8      	; 0x1be2 <Gpio_UpperNibbleDirection+0x58>
    1bda:	81 b3       	in	r24, 0x11	; 17
    1bdc:	80 6f       	ori	r24, 0xF0	; 240
    1bde:	81 bb       	out	0x11, r24	; 17
    1be0:	08 95       	ret
    1be2:	81 b3       	in	r24, 0x11	; 17
    1be4:	8f 70       	andi	r24, 0x0F	; 15
    1be6:	81 bb       	out	0x11, r24	; 17
    1be8:	08 95       	ret

00001bea <Gpio_UpperNibbleWrite>:
*
*   @return  void
****************************************************************************/
void Gpio_UpperNibbleWrite(uint8 port, uint8 value)
{
	switch(port)
    1bea:	81 30       	cpi	r24, 0x01	; 1
    1bec:	79 f0       	breq	.+30     	; 0x1c0c <Gpio_UpperNibbleWrite+0x22>
    1bee:	28 f0       	brcs	.+10     	; 0x1bfa <Gpio_UpperNibbleWrite+0x10>
    1bf0:	82 30       	cpi	r24, 0x02	; 2
    1bf2:	a9 f0       	breq	.+42     	; 0x1c1e <Gpio_UpperNibbleWrite+0x34>
    1bf4:	83 30       	cpi	r24, 0x03	; 3
    1bf6:	e1 f0       	breq	.+56     	; 0x1c30 <Gpio_UpperNibbleWrite+0x46>
    1bf8:	08 95       	ret
	{
		case PORT_A :
			//clear upper ,		set upper	,shift value
			OUT_A = (OUT_A & NIBBLE_LOW_MASK) | (value<<4);
    1bfa:	8b b3       	in	r24, 0x1b	; 27
    1bfc:	8f 70       	andi	r24, 0x0F	; 15
    1bfe:	90 e1       	ldi	r25, 0x10	; 16
    1c00:	69 9f       	mul	r22, r25
    1c02:	b0 01       	movw	r22, r0
    1c04:	11 24       	eor	r1, r1
    1c06:	68 2b       	or	r22, r24
    1c08:	6b bb       	out	0x1b, r22	; 27
			break;
    1c0a:	08 95       	ret
		case PORT_B :
			OUT_B = (OUT_B & NIBBLE_LOW_MASK) | (value<<4);
    1c0c:	88 b3       	in	r24, 0x18	; 24
    1c0e:	8f 70       	andi	r24, 0x0F	; 15
    1c10:	90 e1       	ldi	r25, 0x10	; 16
    1c12:	69 9f       	mul	r22, r25
    1c14:	b0 01       	movw	r22, r0
    1c16:	11 24       	eor	r1, r1
    1c18:	68 2b       	or	r22, r24
    1c1a:	68 bb       	out	0x18, r22	; 24
			break;
    1c1c:	08 95       	ret
		case PORT_C :
			OUT_C = (OUT_C & NIBBLE_LOW_MASK) | (value<<4);
    1c1e:	85 b3       	in	r24, 0x15	; 21
    1c20:	8f 70       	andi	r24, 0x0F	; 15
    1c22:	90 e1       	ldi	r25, 0x10	; 16
    1c24:	69 9f       	mul	r22, r25
    1c26:	b0 01       	movw	r22, r0
    1c28:	11 24       	eor	r1, r1
    1c2a:	68 2b       	or	r22, r24
    1c2c:	65 bb       	out	0x15, r22	; 21
			break;
    1c2e:	08 95       	ret
		case PORT_D :
			OUT_D = (OUT_D & NIBBLE_LOW_MASK) | (value<<4);
    1c30:	82 b3       	in	r24, 0x12	; 18
    1c32:	8f 70       	andi	r24, 0x0F	; 15
    1c34:	90 e1       	ldi	r25, 0x10	; 16
    1c36:	69 9f       	mul	r22, r25
    1c38:	b0 01       	movw	r22, r0
    1c3a:	11 24       	eor	r1, r1
    1c3c:	68 2b       	or	r22, r24
    1c3e:	62 bb       	out	0x12, r22	; 18
    1c40:	08 95       	ret

00001c42 <__tablejump2__>:
    1c42:	ee 0f       	add	r30, r30
    1c44:	ff 1f       	adc	r31, r31
    1c46:	05 90       	lpm	r0, Z+
    1c48:	f4 91       	lpm	r31, Z
    1c4a:	e0 2d       	mov	r30, r0
    1c4c:	09 94       	ijmp

00001c4e <memcpy>:
    1c4e:	fb 01       	movw	r30, r22
    1c50:	dc 01       	movw	r26, r24
    1c52:	02 c0       	rjmp	.+4      	; 0x1c58 <memcpy+0xa>
    1c54:	01 90       	ld	r0, Z+
    1c56:	0d 92       	st	X+, r0
    1c58:	41 50       	subi	r20, 0x01	; 1
    1c5a:	50 40       	sbci	r21, 0x00	; 0
    1c5c:	d8 f7       	brcc	.-10     	; 0x1c54 <memcpy+0x6>
    1c5e:	08 95       	ret

00001c60 <_exit>:
    1c60:	f8 94       	cli

00001c62 <__stop_program>:
    1c62:	ff cf       	rjmp	.-2      	; 0x1c62 <__stop_program>
